
manager.elf:     file format elf32-avr


Disassembly of section .text:

00000000 <__vectors>:
       0:	0c 94 2a 00 	jmp	0x54	; 0x54 <__ctors_end>
       4:	0c 94 0d 0e 	jmp	0x1c1a	; 0x1c1a <__vector_1>
       8:	0c 94 36 0e 	jmp	0x1c6c	; 0x1c6c <__vector_2>
       c:	0c 94 5f 0e 	jmp	0x1cbe	; 0x1cbe <__vector_3>
      10:	0c 94 47 00 	jmp	0x8e	; 0x8e <__bad_interrupt>
      14:	0c 94 47 00 	jmp	0x8e	; 0x8e <__bad_interrupt>
      18:	0c 94 47 00 	jmp	0x8e	; 0x8e <__bad_interrupt>
      1c:	0c 94 47 00 	jmp	0x8e	; 0x8e <__bad_interrupt>
      20:	0c 94 47 00 	jmp	0x8e	; 0x8e <__bad_interrupt>
      24:	0c 94 47 00 	jmp	0x8e	; 0x8e <__bad_interrupt>
      28:	0c 94 81 11 	jmp	0x2302	; 0x2302 <__vector_10>
      2c:	0c 94 58 11 	jmp	0x22b0	; 0x22b0 <__vector_11>
      30:	0c 94 64 10 	jmp	0x20c8	; 0x20c8 <__vector_12>
      34:	0c 94 8b 14 	jmp	0x2916	; 0x2916 <__vector_13>
      38:	0c 94 dd 14 	jmp	0x29ba	; 0x29ba <__vector_14>
      3c:	0c 94 b4 14 	jmp	0x2968	; 0x2968 <__vector_15>
      40:	0c 94 78 0c 	jmp	0x18f0	; 0x18f0 <__vector_16>
      44:	0c 94 47 00 	jmp	0x8e	; 0x8e <__bad_interrupt>
      48:	0c 94 47 00 	jmp	0x8e	; 0x8e <__bad_interrupt>
      4c:	0c 94 03 0f 	jmp	0x1e06	; 0x1e06 <__vector_19>
      50:	0c 94 47 00 	jmp	0x8e	; 0x8e <__bad_interrupt>

00000054 <__ctors_end>:
      54:	11 24       	eor	r1, r1
      56:	1f be       	out	0x3f, r1	; 63
      58:	cf e5       	ldi	r28, 0x5F	; 95
      5a:	d8 e0       	ldi	r29, 0x08	; 8
      5c:	de bf       	out	0x3e, r29	; 62
      5e:	cd bf       	out	0x3d, r28	; 61

00000060 <__do_copy_data>:
      60:	11 e0       	ldi	r17, 0x01	; 1

00000062 <.Loc.1>:
      62:	a0 e6       	ldi	r26, 0x60	; 96

00000064 <.Loc.2>:
      64:	b0 e0       	ldi	r27, 0x00	; 0

00000066 <.Loc.3>:
      66:	e0 e1       	ldi	r30, 0x10	; 16

00000068 <.Loc.4>:
      68:	f7 e3       	ldi	r31, 0x37	; 55

0000006a <.Loc.5>:
      6a:	02 c0       	rjmp	.+4      	; 0x70 <.L__do_copy_data_start>

0000006c <.L__do_copy_data_loop>:
      6c:	05 90       	lpm	r0, Z+

0000006e <.Loc.7>:
      6e:	0d 92       	st	X+, r0

00000070 <.L__do_copy_data_start>:
      70:	a6 32       	cpi	r26, 0x26	; 38

00000072 <.Loc.9>:
      72:	b1 07       	cpc	r27, r17

00000074 <.Loc.10>:
      74:	d9 f7       	brne	.-10     	; 0x6c <.L__do_copy_data_loop>

00000076 <__do_clear_bss>:
      76:	21 e0       	ldi	r18, 0x01	; 1

00000078 <.Loc.1>:
      78:	a6 e2       	ldi	r26, 0x26	; 38

0000007a <.Loc.2>:
      7a:	b1 e0       	ldi	r27, 0x01	; 1

0000007c <.Loc.3>:
      7c:	01 c0       	rjmp	.+2      	; 0x80 <.Loc.5>

0000007e <.Loc.4>:
      7e:	1d 92       	st	X+, r1

00000080 <.Loc.5>:
      80:	a2 36       	cpi	r26, 0x62	; 98

00000082 <.Loc.6>:
      82:	b2 07       	cpc	r27, r18

00000084 <.Loc.7>:
      84:	e1 f7       	brne	.-8      	; 0x7e <.Loc.4>

00000086 <L0^A>:
      86:	0e 94 7d 17 	call	0x2efa	; 0x2efa <main>
      8a:	0c 94 86 1b 	jmp	0x370c	; 0x370c <_exit>

0000008e <__bad_interrupt>:
      8e:	0c 94 00 00 	jmp	0	; 0x0 <__vectors>

00000092 <fnv1a_32_hash>:
      92:	8f 92       	push	r8

00000094 <.LCFI0>:
      94:	9f 92       	push	r9

00000096 <.LCFI1>:
      96:	af 92       	push	r10

00000098 <.LCFI2>:
      98:	bf 92       	push	r11

0000009a <.LCFI3>:
      9a:	cf 92       	push	r12

0000009c <.LCFI4>:
      9c:	df 92       	push	r13

0000009e <.LCFI5>:
      9e:	ef 92       	push	r14

000000a0 <.LCFI6>:
      a0:	ff 92       	push	r15

000000a2 <.LCFI7>:
      a2:	cf 93       	push	r28

000000a4 <.LCFI8>:
      a4:	df 93       	push	r29

000000a6 <.LCFI9>:
      a6:	00 d0       	rcall	.+0      	; 0xa8 <L0^A>

000000a8 <L0^A>:
      a8:	00 d0       	rcall	.+0      	; 0xaa <L0^A>

000000aa <L0^A>:
      aa:	cd b7       	in	r28, 0x3d	; 61
      ac:	de b7       	in	r29, 0x3e	; 62

000000ae <.LCFI11>:
      ae:	e8 2f       	mov	r30, r24
      b0:	f9 2f       	mov	r31, r25
      b2:	84 2e       	mov	r8, r20
      b4:	95 2e       	mov	r9, r21
      b6:	a6 2e       	mov	r10, r22
      b8:	b7 2e       	mov	r11, r23

000000ba <.LBB2>:
      ba:	c1 2c       	mov	r12, r1
      bc:	d1 2c       	mov	r13, r1
      be:	76 01       	movw	r14, r12

000000c0 <.LBE2>:
      c0:	85 ec       	ldi	r24, 0xC5	; 197
      c2:	9d e9       	ldi	r25, 0x9D	; 157
      c4:	ac e1       	ldi	r26, 0x1C	; 28
      c6:	b1 e8       	ldi	r27, 0x81	; 129

000000c8 <.LVL2>:
      c8:	89 83       	std	Y+1, r24	; 0x01
      ca:	9a 83       	std	Y+2, r25	; 0x02
      cc:	ab 83       	std	Y+3, r26	; 0x03
      ce:	bc 83       	std	Y+4, r27	; 0x04

000000d0 <.LBB3>:
      d0:	20 c0       	rjmp	.+64     	; 0x112 <.L2>

000000d2 <.L3>:
      d2:	df 01       	movw	r26, r30
      d4:	ac 0d       	add	r26, r12
      d6:	bd 1d       	adc	r27, r13
      d8:	2c 91       	ld	r18, X

000000da <.Loc.11>:
      da:	02 2e       	mov	r0, r18
      dc:	00 0c       	add	r0, r0
      de:	33 0b       	sbc	r19, r19
      e0:	44 0b       	sbc	r20, r20
      e2:	55 0b       	sbc	r21, r21

000000e4 <.Loc.12>:
      e4:	89 81       	ldd	r24, Y+1	; 0x01
      e6:	9a 81       	ldd	r25, Y+2	; 0x02
      e8:	ab 81       	ldd	r26, Y+3	; 0x03
      ea:	bc 81       	ldd	r27, Y+4	; 0x04
      ec:	28 27       	eor	r18, r24
      ee:	39 27       	eor	r19, r25
      f0:	4a 27       	eor	r20, r26
      f2:	5b 27       	eor	r21, r27

000000f4 <.LVL4>:
      f4:	63 e9       	ldi	r22, 0x93	; 147
      f6:	71 e0       	ldi	r23, 0x01	; 1
      f8:	80 e0       	ldi	r24, 0x00	; 0
      fa:	91 e0       	ldi	r25, 0x01	; 1
      fc:	0e 94 fa 18 	call	0x31f4	; 0x31f4 <__mulsi3>
     100:	69 83       	std	Y+1, r22	; 0x01
     102:	7a 83       	std	Y+2, r23	; 0x02
     104:	8b 83       	std	Y+3, r24	; 0x03
     106:	9c 83       	std	Y+4, r25	; 0x04

00000108 <.LVL5>:
     108:	9f ef       	ldi	r25, 0xFF	; 255
     10a:	c9 1a       	sub	r12, r25
     10c:	d9 0a       	sbc	r13, r25
     10e:	e9 0a       	sbc	r14, r25
     110:	f9 0a       	sbc	r15, r25

00000112 <.L2>:
     112:	c8 14       	cp	r12, r8
     114:	d9 04       	cpc	r13, r9
     116:	ea 04       	cpc	r14, r10
     118:	fb 04       	cpc	r15, r11
     11a:	d8 f2       	brcs	.-74     	; 0xd2 <.L3>

0000011c <.LBE3>:
     11c:	69 81       	ldd	r22, Y+1	; 0x01
     11e:	7a 81       	ldd	r23, Y+2	; 0x02
     120:	8b 81       	ldd	r24, Y+3	; 0x03
     122:	9c 81       	ldd	r25, Y+4	; 0x04
     124:	0f 90       	pop	r0
     126:	0f 90       	pop	r0
     128:	0f 90       	pop	r0
     12a:	0f 90       	pop	r0
     12c:	df 91       	pop	r29
     12e:	cf 91       	pop	r28
     130:	ff 90       	pop	r15
     132:	ef 90       	pop	r14
     134:	df 90       	pop	r13
     136:	cf 90       	pop	r12

00000138 <.LVL7>:
     138:	bf 90       	pop	r11
     13a:	af 90       	pop	r10
     13c:	9f 90       	pop	r9
     13e:	8f 90       	pop	r8
     140:	08 95       	ret

00000142 <hashBlock>:
     142:	48 e4       	ldi	r20, 0x48	; 72
     144:	50 e0       	ldi	r21, 0x00	; 0
     146:	60 e0       	ldi	r22, 0x00	; 0
     148:	70 e0       	ldi	r23, 0x00	; 0
     14a:	0e 94 49 00 	call	0x92	; 0x92 <fnv1a_32_hash>

0000014e <.LVL9>:
     14e:	08 95       	ret

00000150 <rand>:
     150:	cf 92       	push	r12

00000152 <.LCFI0>:
     152:	df 92       	push	r13

00000154 <.LCFI1>:
     154:	ef 92       	push	r14

00000156 <.LCFI2>:
     156:	ff 92       	push	r15

00000158 <.LCFI3>:
     158:	cf 93       	push	r28

0000015a <.LCFI4>:
     15a:	df 93       	push	r29

0000015c <.LCFI5>:
     15c:	00 d0       	rcall	.+0      	; 0x15e <L0^A>

0000015e <L0^A>:
     15e:	00 d0       	rcall	.+0      	; 0x160 <L0^A>

00000160 <L0^A>:
     160:	cd b7       	in	r28, 0x3d	; 61
     162:	de b7       	in	r29, 0x3e	; 62

00000164 <.LCFI7>:
     164:	0e 94 e1 0c 	call	0x19c2	; 0x19c2 <ADC_voidStartOneConversion>

00000168 <.LVL1>:
     168:	0e 94 ef 0c 	call	0x19de	; 0x19de <ADC_u8GetHighValuePolling>

0000016c <.LVL2>:
     16c:	c8 2e       	mov	r12, r24
     16e:	d1 2c       	mov	r13, r1
     170:	e1 2c       	mov	r14, r1
     172:	f1 2c       	mov	r15, r1

00000174 <.LVL3>:
     174:	0e 94 e1 0c 	call	0x19c2	; 0x19c2 <ADC_voidStartOneConversion>

00000178 <.LVL4>:
     178:	0e 94 ef 0c 	call	0x19de	; 0x19de <ADC_u8GetHighValuePolling>

0000017c <.LVL5>:
     17c:	90 e0       	ldi	r25, 0x00	; 0
     17e:	a0 e0       	ldi	r26, 0x00	; 0
     180:	b0 e0       	ldi	r27, 0x00	; 0

00000182 <.Loc.10>:
     182:	ba 2f       	mov	r27, r26
     184:	a9 2f       	mov	r26, r25
     186:	98 2f       	mov	r25, r24
     188:	88 27       	eor	r24, r24

0000018a <.Loc.11>:
     18a:	c8 2a       	or	r12, r24
     18c:	d9 2a       	or	r13, r25
     18e:	ea 2a       	or	r14, r26
     190:	fb 2a       	or	r15, r27

00000192 <.Loc.12>:
     192:	0e 94 e1 0c 	call	0x19c2	; 0x19c2 <ADC_voidStartOneConversion>

00000196 <.LVL7>:
     196:	0e 94 ef 0c 	call	0x19de	; 0x19de <ADC_u8GetHighValuePolling>

0000019a <.LVL8>:
     19a:	90 e0       	ldi	r25, 0x00	; 0
     19c:	a0 e0       	ldi	r26, 0x00	; 0
     19e:	b0 e0       	ldi	r27, 0x00	; 0

000001a0 <.Loc.16>:
     1a0:	dc 01       	movw	r26, r24
     1a2:	99 27       	eor	r25, r25
     1a4:	88 27       	eor	r24, r24

000001a6 <.Loc.17>:
     1a6:	c8 2a       	or	r12, r24
     1a8:	d9 2a       	or	r13, r25
     1aa:	ea 2a       	or	r14, r26
     1ac:	fb 2a       	or	r15, r27

000001ae <.Loc.18>:
     1ae:	0e 94 e1 0c 	call	0x19c2	; 0x19c2 <ADC_voidStartOneConversion>

000001b2 <.LVL10>:
     1b2:	0e 94 ef 0c 	call	0x19de	; 0x19de <ADC_u8GetHighValuePolling>

000001b6 <.LVL11>:
     1b6:	90 e0       	ldi	r25, 0x00	; 0
     1b8:	a0 e0       	ldi	r26, 0x00	; 0
     1ba:	b0 e0       	ldi	r27, 0x00	; 0

000001bc <.Loc.22>:
     1bc:	b8 2f       	mov	r27, r24
     1be:	aa 27       	eor	r26, r26
     1c0:	99 27       	eor	r25, r25
     1c2:	88 27       	eor	r24, r24

000001c4 <.Loc.23>:
     1c4:	a7 01       	movw	r20, r14
     1c6:	96 01       	movw	r18, r12
     1c8:	28 2b       	or	r18, r24
     1ca:	39 2b       	or	r19, r25
     1cc:	4a 2b       	or	r20, r26
     1ce:	5b 2b       	or	r21, r27
     1d0:	29 83       	std	Y+1, r18	; 0x01
     1d2:	3a 83       	std	Y+2, r19	; 0x02
     1d4:	4b 83       	std	Y+3, r20	; 0x03
     1d6:	5c 83       	std	Y+4, r21	; 0x04

000001d8 <.LVL12>:
     1d8:	ca 01       	movw	r24, r20
     1da:	b9 01       	movw	r22, r18
     1dc:	0f 90       	pop	r0
     1de:	0f 90       	pop	r0
     1e0:	0f 90       	pop	r0
     1e2:	0f 90       	pop	r0
     1e4:	df 91       	pop	r29
     1e6:	cf 91       	pop	r28
     1e8:	ff 90       	pop	r15
     1ea:	ef 90       	pop	r14
     1ec:	df 90       	pop	r13
     1ee:	cf 90       	pop	r12
     1f0:	08 95       	ret

000001f2 <generateRandomTransaction>:
     1f2:	cf 93       	push	r28

000001f4 <.LCFI0>:
     1f4:	df 93       	push	r29

000001f6 <.LCFI1>:
     1f6:	c8 2f       	mov	r28, r24
     1f8:	d9 2f       	mov	r29, r25

000001fa <.Loc.2>:
     1fa:	0e 94 a8 00 	call	0x150	; 0x150 <rand>

000001fe <.LVL1>:
     1fe:	68 83       	st	Y, r22
     200:	79 83       	std	Y+1, r23	; 0x01
     202:	8a 83       	std	Y+2, r24	; 0x02
     204:	9b 83       	std	Y+3, r25	; 0x03

00000206 <.Loc.5>:
     206:	0e 94 a8 00 	call	0x150	; 0x150 <rand>

0000020a <.LVL2>:
     20a:	6c 83       	std	Y+4, r22	; 0x04
     20c:	7d 83       	std	Y+5, r23	; 0x05
     20e:	8e 83       	std	Y+6, r24	; 0x06
     210:	9f 83       	std	Y+7, r25	; 0x07

00000212 <.Loc.7>:
     212:	0e 94 a8 00 	call	0x150	; 0x150 <rand>

00000216 <.LVL3>:
     216:	68 87       	std	Y+8, r22	; 0x08
     218:	79 87       	std	Y+9, r23	; 0x09
     21a:	8a 87       	std	Y+10, r24	; 0x0a
     21c:	9b 87       	std	Y+11, r25	; 0x0b

0000021e <.Loc.9>:
     21e:	df 91       	pop	r29
     220:	cf 91       	pop	r28
     222:	08 95       	ret

00000224 <SEV_SEG_enuDisplayNum>:
     224:	ff 92       	push	r15

00000226 <.LCFI0>:
     226:	0f 93       	push	r16

00000228 <.LCFI1>:
     228:	1f 93       	push	r17

0000022a <.LCFI2>:
     22a:	cf 93       	push	r28

0000022c <.LCFI3>:
     22c:	df 93       	push	r29

0000022e <.LCFI4>:
     22e:	c8 2f       	mov	r28, r24
     230:	d9 2f       	mov	r29, r25
     232:	f6 2e       	mov	r15, r22

00000234 <.Loc.2>:
     234:	20 97       	sbiw	r28, 0x00	; 0
     236:	09 f4       	brne	.+2      	; 0x23a <.Loc.5>

00000238 <L0^A>:
     238:	b4 c0       	rjmp	.+360    	; 0x3a2 <.L16>

0000023a <.Loc.5>:
     23a:	80 e0       	ldi	r24, 0x00	; 0
     23c:	c0 36       	cpi	r28, 0x60	; 96
     23e:	d8 07       	cpc	r29, r24

00000240 <.LVL1>:
     240:	08 f4       	brcc	.+2      	; 0x244 <.Loc.8>

00000242 <L0^A>:
     242:	b2 c0       	rjmp	.+356    	; 0x3a8 <.L17>

00000244 <.Loc.8>:
     244:	20 91 86 00 	lds	r18, 0x0086	; 0x800086 <SEV_SEG_u8NUM>
     248:	21 50       	subi	r18, 0x01	; 1
     24a:	33 0b       	sbc	r19, r19

0000024c <.Loc.9>:
     24c:	49 e6       	ldi	r20, 0x69	; 105
     24e:	51 e0       	ldi	r21, 0x01	; 1
     250:	24 9f       	mul	r18, r20
     252:	c0 01       	movw	r24, r0
     254:	25 9f       	mul	r18, r21
     256:	90 0d       	add	r25, r0
     258:	34 9f       	mul	r19, r20
     25a:	90 0d       	add	r25, r0
     25c:	11 24       	eor	r1, r1
     25e:	80 5a       	subi	r24, 0xA0	; 160
     260:	9f 4f       	sbci	r25, 0xFF	; 255

00000262 <.Loc.10>:
     262:	8c 17       	cp	r24, r28
     264:	9d 07       	cpc	r25, r29
     266:	08 f4       	brcc	.+2      	; 0x26a <.Loc.11>

00000268 <L0^A>:
     268:	a2 c0       	rjmp	.+324    	; 0x3ae <.L18>

0000026a <.Loc.11>:
     26a:	06 2f       	mov	r16, r22
     26c:	10 e0       	ldi	r17, 0x00	; 0
     26e:	f8 01       	movw	r30, r16
     270:	e0 55       	subi	r30, 0x50	; 80
     272:	ff 4f       	sbci	r31, 0xFF	; 255
     274:	80 81       	ld	r24, Z

00000276 <.Loc.13>:
     276:	98 81       	ld	r25, Y

00000278 <.Loc.14>:
     278:	81 70       	andi	r24, 0x01	; 1
     27a:	41 e0       	ldi	r20, 0x01	; 1
     27c:	89 13       	cpse	r24, r25
     27e:	40 e0       	ldi	r20, 0x00	; 0
     280:	6a 81       	ldd	r22, Y+2	; 0x02

00000282 <.LVL2>:
     282:	89 81       	ldd	r24, Y+1	; 0x01
     284:	0e 94 94 0d 	call	0x1b28	; 0x1b28 <DIO_enuSetPinValue>

00000288 <.LVL3>:
     288:	28 2f       	mov	r18, r24
     28a:	39 2f       	mov	r19, r25

0000028c <.LVL4>:
     28c:	88 23       	and	r24, r24
     28e:	19 f0       	breq	.+6      	; 0x296 <.L4>

00000290 <.Loc.18>:
     290:	c9 01       	movw	r24, r18
     292:	99 27       	eor	r25, r25

00000294 <.Loc.19>:
     294:	8e c0       	rjmp	.+284    	; 0x3b2 <.L1>

00000296 <.L4>:
     296:	f8 01       	movw	r30, r16
     298:	e0 55       	subi	r30, 0x50	; 80
     29a:	ff 4f       	sbci	r31, 0xFF	; 255
     29c:	80 81       	ld	r24, Z

0000029e <.Loc.22>:
     29e:	98 81       	ld	r25, Y

000002a0 <.Loc.23>:
     2a0:	86 95       	lsr	r24
     2a2:	81 70       	andi	r24, 0x01	; 1
     2a4:	41 e0       	ldi	r20, 0x01	; 1
     2a6:	89 13       	cpse	r24, r25
     2a8:	40 e0       	ldi	r20, 0x00	; 0
     2aa:	6c 81       	ldd	r22, Y+4	; 0x04
     2ac:	8b 81       	ldd	r24, Y+3	; 0x03
     2ae:	0e 94 94 0d 	call	0x1b28	; 0x1b28 <DIO_enuSetPinValue>

000002b2 <.LVL5>:
     2b2:	28 2f       	mov	r18, r24
     2b4:	39 2f       	mov	r19, r25

000002b6 <.LVL6>:
     2b6:	88 23       	and	r24, r24
     2b8:	19 f0       	breq	.+6      	; 0x2c0 <.L6>

000002ba <.Loc.27>:
     2ba:	c9 01       	movw	r24, r18
     2bc:	99 27       	eor	r25, r25

000002be <.Loc.28>:
     2be:	79 c0       	rjmp	.+242    	; 0x3b2 <.L1>

000002c0 <.L6>:
     2c0:	f8 01       	movw	r30, r16
     2c2:	e0 55       	subi	r30, 0x50	; 80
     2c4:	ff 4f       	sbci	r31, 0xFF	; 255
     2c6:	80 81       	ld	r24, Z

000002c8 <.Loc.31>:
     2c8:	98 81       	ld	r25, Y

000002ca <.Loc.32>:
     2ca:	82 fb       	bst	r24, 2
     2cc:	88 27       	eor	r24, r24
     2ce:	80 f9       	bld	r24, 0
     2d0:	41 e0       	ldi	r20, 0x01	; 1
     2d2:	89 13       	cpse	r24, r25
     2d4:	40 e0       	ldi	r20, 0x00	; 0
     2d6:	6e 81       	ldd	r22, Y+6	; 0x06
     2d8:	8d 81       	ldd	r24, Y+5	; 0x05
     2da:	0e 94 94 0d 	call	0x1b28	; 0x1b28 <DIO_enuSetPinValue>

000002de <.LVL7>:
     2de:	28 2f       	mov	r18, r24
     2e0:	39 2f       	mov	r19, r25

000002e2 <.LVL8>:
     2e2:	88 23       	and	r24, r24
     2e4:	19 f0       	breq	.+6      	; 0x2ec <.L8>

000002e6 <.Loc.36>:
     2e6:	c9 01       	movw	r24, r18
     2e8:	99 27       	eor	r25, r25

000002ea <.Loc.37>:
     2ea:	63 c0       	rjmp	.+198    	; 0x3b2 <.L1>

000002ec <.L8>:
     2ec:	f8 01       	movw	r30, r16
     2ee:	e0 55       	subi	r30, 0x50	; 80
     2f0:	ff 4f       	sbci	r31, 0xFF	; 255
     2f2:	80 81       	ld	r24, Z

000002f4 <.Loc.40>:
     2f4:	98 81       	ld	r25, Y

000002f6 <.Loc.41>:
     2f6:	83 fb       	bst	r24, 3
     2f8:	88 27       	eor	r24, r24
     2fa:	80 f9       	bld	r24, 0
     2fc:	41 e0       	ldi	r20, 0x01	; 1
     2fe:	89 13       	cpse	r24, r25
     300:	40 e0       	ldi	r20, 0x00	; 0
     302:	68 85       	ldd	r22, Y+8	; 0x08
     304:	8f 81       	ldd	r24, Y+7	; 0x07
     306:	0e 94 94 0d 	call	0x1b28	; 0x1b28 <DIO_enuSetPinValue>

0000030a <.LVL9>:
     30a:	28 2f       	mov	r18, r24
     30c:	39 2f       	mov	r19, r25

0000030e <.LVL10>:
     30e:	88 23       	and	r24, r24
     310:	19 f0       	breq	.+6      	; 0x318 <.L10>

00000312 <.Loc.45>:
     312:	c9 01       	movw	r24, r18
     314:	99 27       	eor	r25, r25

00000316 <.Loc.46>:
     316:	4d c0       	rjmp	.+154    	; 0x3b2 <.L1>

00000318 <.L10>:
     318:	f8 01       	movw	r30, r16
     31a:	e0 55       	subi	r30, 0x50	; 80
     31c:	ff 4f       	sbci	r31, 0xFF	; 255
     31e:	80 81       	ld	r24, Z

00000320 <.Loc.49>:
     320:	98 81       	ld	r25, Y

00000322 <.Loc.50>:
     322:	82 95       	swap	r24
     324:	81 70       	andi	r24, 0x01	; 1
     326:	41 e0       	ldi	r20, 0x01	; 1
     328:	89 13       	cpse	r24, r25
     32a:	40 e0       	ldi	r20, 0x00	; 0
     32c:	6a 85       	ldd	r22, Y+10	; 0x0a
     32e:	89 85       	ldd	r24, Y+9	; 0x09
     330:	0e 94 94 0d 	call	0x1b28	; 0x1b28 <DIO_enuSetPinValue>

00000334 <.LVL11>:
     334:	28 2f       	mov	r18, r24
     336:	39 2f       	mov	r19, r25

00000338 <.LVL12>:
     338:	88 23       	and	r24, r24
     33a:	19 f0       	breq	.+6      	; 0x342 <.L12>

0000033c <.Loc.54>:
     33c:	c9 01       	movw	r24, r18
     33e:	99 27       	eor	r25, r25

00000340 <.Loc.55>:
     340:	38 c0       	rjmp	.+112    	; 0x3b2 <.L1>

00000342 <.L12>:
     342:	f8 01       	movw	r30, r16
     344:	e0 55       	subi	r30, 0x50	; 80
     346:	ff 4f       	sbci	r31, 0xFF	; 255
     348:	80 81       	ld	r24, Z

0000034a <.Loc.58>:
     34a:	98 81       	ld	r25, Y

0000034c <.Loc.59>:
     34c:	85 fb       	bst	r24, 5
     34e:	88 27       	eor	r24, r24
     350:	80 f9       	bld	r24, 0
     352:	41 e0       	ldi	r20, 0x01	; 1
     354:	89 13       	cpse	r24, r25
     356:	40 e0       	ldi	r20, 0x00	; 0
     358:	6c 85       	ldd	r22, Y+12	; 0x0c
     35a:	8b 85       	ldd	r24, Y+11	; 0x0b
     35c:	0e 94 94 0d 	call	0x1b28	; 0x1b28 <DIO_enuSetPinValue>

00000360 <.LVL13>:
     360:	28 2f       	mov	r18, r24
     362:	39 2f       	mov	r19, r25

00000364 <.LVL14>:
     364:	88 23       	and	r24, r24
     366:	19 f0       	breq	.+6      	; 0x36e <.L14>

00000368 <.Loc.63>:
     368:	c9 01       	movw	r24, r18
     36a:	99 27       	eor	r25, r25

0000036c <.Loc.64>:
     36c:	22 c0       	rjmp	.+68     	; 0x3b2 <.L1>

0000036e <.L14>:
     36e:	f8 01       	movw	r30, r16
     370:	e0 55       	subi	r30, 0x50	; 80
     372:	ff 4f       	sbci	r31, 0xFF	; 255
     374:	80 81       	ld	r24, Z

00000376 <.Loc.67>:
     376:	98 81       	ld	r25, Y

00000378 <.Loc.68>:
     378:	86 fb       	bst	r24, 6
     37a:	88 27       	eor	r24, r24
     37c:	80 f9       	bld	r24, 0
     37e:	41 e0       	ldi	r20, 0x01	; 1
     380:	89 13       	cpse	r24, r25
     382:	40 e0       	ldi	r20, 0x00	; 0
     384:	6e 85       	ldd	r22, Y+14	; 0x0e
     386:	8d 85       	ldd	r24, Y+13	; 0x0d
     388:	0e 94 94 0d 	call	0x1b28	; 0x1b28 <DIO_enuSetPinValue>

0000038c <.LVL15>:
     38c:	28 2f       	mov	r18, r24
     38e:	39 2f       	mov	r19, r25

00000390 <.LVL16>:
     390:	f9 8a       	std	Y+17, r15	; 0x11

00000392 <.Loc.72>:
     392:	81 11       	cpse	r24, r1
     394:	03 c0       	rjmp	.+6      	; 0x39c <.L20>

00000396 <.Loc.74>:
     396:	80 e0       	ldi	r24, 0x00	; 0
     398:	90 e0       	ldi	r25, 0x00	; 0
     39a:	0b c0       	rjmp	.+22     	; 0x3b2 <.L1>

0000039c <.L20>:
     39c:	c9 01       	movw	r24, r18
     39e:	99 27       	eor	r25, r25

000003a0 <.Loc.76>:
     3a0:	08 c0       	rjmp	.+16     	; 0x3b2 <.L1>

000003a2 <.L16>:
     3a2:	82 e0       	ldi	r24, 0x02	; 2
     3a4:	90 e0       	ldi	r25, 0x00	; 0

000003a6 <.LVL18>:
     3a6:	05 c0       	rjmp	.+10     	; 0x3b2 <.L1>

000003a8 <.L17>:
     3a8:	84 e0       	ldi	r24, 0x04	; 4
     3aa:	90 e0       	ldi	r25, 0x00	; 0
     3ac:	02 c0       	rjmp	.+4      	; 0x3b2 <.L1>

000003ae <.L18>:
     3ae:	84 e0       	ldi	r24, 0x04	; 4
     3b0:	90 e0       	ldi	r25, 0x00	; 0

000003b2 <.L1>:
     3b2:	df 91       	pop	r29
     3b4:	cf 91       	pop	r28
     3b6:	1f 91       	pop	r17
     3b8:	0f 91       	pop	r16
     3ba:	ff 90       	pop	r15

000003bc <.LVL19>:
     3bc:	08 95       	ret

000003be <SEV_SEG_enuDotOn>:
     3be:	cf 93       	push	r28

000003c0 <.LCFI5>:
     3c0:	df 93       	push	r29

000003c2 <.LCFI6>:
     3c2:	c8 2f       	mov	r28, r24
     3c4:	d9 2f       	mov	r29, r25

000003c6 <.Loc.84>:
     3c6:	20 97       	sbiw	r28, 0x00	; 0
     3c8:	19 f1       	breq	.+70     	; 0x410 <.L23>

000003ca <.Loc.87>:
     3ca:	80 e0       	ldi	r24, 0x00	; 0
     3cc:	c0 36       	cpi	r28, 0x60	; 96
     3ce:	d8 07       	cpc	r29, r24

000003d0 <.LVL21>:
     3d0:	10 f1       	brcs	.+68     	; 0x416 <.L24>

000003d2 <.Loc.90>:
     3d2:	20 91 86 00 	lds	r18, 0x0086	; 0x800086 <SEV_SEG_u8NUM>
     3d6:	21 50       	subi	r18, 0x01	; 1
     3d8:	33 0b       	sbc	r19, r19

000003da <.Loc.91>:
     3da:	49 e6       	ldi	r20, 0x69	; 105
     3dc:	51 e0       	ldi	r21, 0x01	; 1
     3de:	24 9f       	mul	r18, r20
     3e0:	c0 01       	movw	r24, r0
     3e2:	25 9f       	mul	r18, r21
     3e4:	90 0d       	add	r25, r0
     3e6:	34 9f       	mul	r19, r20
     3e8:	90 0d       	add	r25, r0
     3ea:	11 24       	eor	r1, r1
     3ec:	80 5a       	subi	r24, 0xA0	; 160
     3ee:	9f 4f       	sbci	r25, 0xFF	; 255

000003f0 <.Loc.92>:
     3f0:	8c 17       	cp	r24, r28
     3f2:	9d 07       	cpc	r25, r29
     3f4:	98 f0       	brcs	.+38     	; 0x41c <.L25>

000003f6 <.Loc.93>:
     3f6:	8f 85       	ldd	r24, Y+15	; 0x0f

000003f8 <.Loc.95>:
     3f8:	8f 3f       	cpi	r24, 0xFF	; 255
     3fa:	99 f0       	breq	.+38     	; 0x422 <.L26>

000003fc <.Loc.96>:
     3fc:	48 81       	ld	r20, Y
     3fe:	68 89       	ldd	r22, Y+16	; 0x10
     400:	0e 94 94 0d 	call	0x1b28	; 0x1b28 <DIO_enuSetPinValue>

00000404 <.LVL22>:
     404:	91 e0       	ldi	r25, 0x01	; 1
     406:	9a 8b       	std	Y+18, r25	; 0x12

00000408 <.Loc.100>:
     408:	90 e0       	ldi	r25, 0x00	; 0

0000040a <.L21>:
     40a:	df 91       	pop	r29
     40c:	cf 91       	pop	r28
     40e:	08 95       	ret

00000410 <.L23>:
     410:	82 e0       	ldi	r24, 0x02	; 2
     412:	90 e0       	ldi	r25, 0x00	; 0

00000414 <.LVL25>:
     414:	fa cf       	rjmp	.-12     	; 0x40a <.L21>

00000416 <.L24>:
     416:	84 e0       	ldi	r24, 0x04	; 4
     418:	90 e0       	ldi	r25, 0x00	; 0
     41a:	f7 cf       	rjmp	.-18     	; 0x40a <.L21>

0000041c <.L25>:
     41c:	84 e0       	ldi	r24, 0x04	; 4
     41e:	90 e0       	ldi	r25, 0x00	; 0
     420:	f4 cf       	rjmp	.-24     	; 0x40a <.L21>

00000422 <.L26>:
     422:	89 e0       	ldi	r24, 0x09	; 9
     424:	90 e0       	ldi	r25, 0x00	; 0
     426:	f1 cf       	rjmp	.-30     	; 0x40a <.L21>

00000428 <SEV_SEG_enuDotOff>:
     428:	cf 93       	push	r28

0000042a <.LCFI7>:
     42a:	df 93       	push	r29

0000042c <.LCFI8>:
     42c:	c8 2f       	mov	r28, r24
     42e:	d9 2f       	mov	r29, r25

00000430 <.Loc.108>:
     430:	20 97       	sbiw	r28, 0x00	; 0
     432:	29 f1       	breq	.+74     	; 0x47e <.L30>

00000434 <.Loc.111>:
     434:	80 e0       	ldi	r24, 0x00	; 0
     436:	c0 36       	cpi	r28, 0x60	; 96
     438:	d8 07       	cpc	r29, r24

0000043a <.LVL27>:
     43a:	20 f1       	brcs	.+72     	; 0x484 <.L31>

0000043c <.Loc.114>:
     43c:	20 91 86 00 	lds	r18, 0x0086	; 0x800086 <SEV_SEG_u8NUM>
     440:	21 50       	subi	r18, 0x01	; 1
     442:	33 0b       	sbc	r19, r19

00000444 <.Loc.115>:
     444:	49 e6       	ldi	r20, 0x69	; 105
     446:	51 e0       	ldi	r21, 0x01	; 1
     448:	24 9f       	mul	r18, r20
     44a:	c0 01       	movw	r24, r0
     44c:	25 9f       	mul	r18, r21
     44e:	90 0d       	add	r25, r0
     450:	34 9f       	mul	r19, r20
     452:	90 0d       	add	r25, r0
     454:	11 24       	eor	r1, r1
     456:	80 5a       	subi	r24, 0xA0	; 160
     458:	9f 4f       	sbci	r25, 0xFF	; 255

0000045a <.Loc.116>:
     45a:	8c 17       	cp	r24, r28
     45c:	9d 07       	cpc	r25, r29
     45e:	a8 f0       	brcs	.+42     	; 0x48a <.L32>

00000460 <.Loc.117>:
     460:	8f 85       	ldd	r24, Y+15	; 0x0f

00000462 <.Loc.119>:
     462:	8f 3f       	cpi	r24, 0xFF	; 255
     464:	a9 f0       	breq	.+42     	; 0x490 <.L33>

00000466 <.Loc.120>:
     466:	98 81       	ld	r25, Y

00000468 <.Loc.122>:
     468:	41 e0       	ldi	r20, 0x01	; 1
     46a:	91 11       	cpse	r25, r1
     46c:	40 e0       	ldi	r20, 0x00	; 0
     46e:	68 89       	ldd	r22, Y+16	; 0x10
     470:	0e 94 94 0d 	call	0x1b28	; 0x1b28 <DIO_enuSetPinValue>

00000474 <.LVL28>:
     474:	1a 8a       	std	Y+18, r1	; 0x12

00000476 <.Loc.125>:
     476:	90 e0       	ldi	r25, 0x00	; 0

00000478 <.L27>:
     478:	df 91       	pop	r29
     47a:	cf 91       	pop	r28
     47c:	08 95       	ret

0000047e <.L30>:
     47e:	82 e0       	ldi	r24, 0x02	; 2
     480:	90 e0       	ldi	r25, 0x00	; 0

00000482 <.LVL31>:
     482:	fa cf       	rjmp	.-12     	; 0x478 <.L27>

00000484 <.L31>:
     484:	84 e0       	ldi	r24, 0x04	; 4
     486:	90 e0       	ldi	r25, 0x00	; 0
     488:	f7 cf       	rjmp	.-18     	; 0x478 <.L27>

0000048a <.L32>:
     48a:	84 e0       	ldi	r24, 0x04	; 4
     48c:	90 e0       	ldi	r25, 0x00	; 0
     48e:	f4 cf       	rjmp	.-24     	; 0x478 <.L27>

00000490 <.L33>:
     490:	89 e0       	ldi	r24, 0x09	; 9
     492:	90 e0       	ldi	r25, 0x00	; 0
     494:	f1 cf       	rjmp	.-30     	; 0x478 <.L27>

00000496 <SEV_SEG_enuInit>:
     496:	ff 92       	push	r15

00000498 <.LCFI9>:
     498:	0f 93       	push	r16

0000049a <.LCFI10>:
     49a:	1f 93       	push	r17

0000049c <.LCFI11>:
     49c:	cf 93       	push	r28

0000049e <.LCFI12>:
     49e:	df 93       	push	r29

000004a0 <.LCFI13>:
     4a0:	08 2f       	mov	r16, r24
     4a2:	19 2f       	mov	r17, r25

000004a4 <.Loc.133>:
     4a4:	01 15       	cp	r16, r1
     4a6:	11 05       	cpc	r17, r1
     4a8:	09 f4       	brne	.+2      	; 0x4ac <.Loc.136>

000004aa <L0^A>:
     4aa:	9c c0       	rjmp	.+312    	; 0x5e4 <.L49>

000004ac <.Loc.136>:
     4ac:	80 91 86 00 	lds	r24, 0x0086	; 0x800086 <SEV_SEG_u8NUM>

000004b0 <.LVL33>:
     4b0:	88 23       	and	r24, r24
     4b2:	09 f4       	brne	.+2      	; 0x4b6 <.Loc.139>

000004b4 <L0^A>:
     4b4:	9a c0       	rjmp	.+308    	; 0x5ea <.L50>

000004b6 <.Loc.139>:
     4b6:	80 e0       	ldi	r24, 0x00	; 0
     4b8:	00 36       	cpi	r16, 0x60	; 96
     4ba:	18 07       	cpc	r17, r24
     4bc:	09 f0       	breq	.+2      	; 0x4c0 <.LBB2>

000004be <L0^A>:
     4be:	98 c0       	rjmp	.+304    	; 0x5f0 <.L51>

000004c0 <.LBB2>:
     4c0:	f1 2c       	mov	r15, r1
     4c2:	29 c0       	rjmp	.+82     	; 0x516 <.L36>

000004c4 <.L55>:
     4c4:	c9 01       	movw	r24, r18
     4c6:	99 27       	eor	r25, r25

000004c8 <.Loc.143>:
     4c8:	95 c0       	rjmp	.+298    	; 0x5f4 <.L34>

000004ca <.L56>:
     4ca:	c9 01       	movw	r24, r18
     4cc:	99 27       	eor	r25, r25

000004ce <.Loc.145>:
     4ce:	92 c0       	rjmp	.+292    	; 0x5f4 <.L34>

000004d0 <.L57>:
     4d0:	c9 01       	movw	r24, r18
     4d2:	99 27       	eor	r25, r25

000004d4 <.Loc.147>:
     4d4:	8f c0       	rjmp	.+286    	; 0x5f4 <.L34>

000004d6 <.L58>:
     4d6:	c9 01       	movw	r24, r18
     4d8:	99 27       	eor	r25, r25

000004da <.Loc.149>:
     4da:	8c c0       	rjmp	.+280    	; 0x5f4 <.L34>

000004dc <.L59>:
     4dc:	c9 01       	movw	r24, r18
     4de:	99 27       	eor	r25, r25

000004e0 <.Loc.151>:
     4e0:	89 c0       	rjmp	.+274    	; 0x5f4 <.L34>

000004e2 <.L60>:
     4e2:	c9 01       	movw	r24, r18
     4e4:	99 27       	eor	r25, r25

000004e6 <.Loc.153>:
     4e6:	86 c0       	rjmp	.+268    	; 0x5f4 <.L34>

000004e8 <.L61>:
     4e8:	c9 01       	movw	r24, r18
     4ea:	99 27       	eor	r25, r25

000004ec <.Loc.155>:
     4ec:	83 c0       	rjmp	.+262    	; 0x5f4 <.L34>

000004ee <.L62>:
     4ee:	c9 01       	movw	r24, r18
     4f0:	99 27       	eor	r25, r25

000004f2 <.Loc.157>:
     4f2:	80 c0       	rjmp	.+256    	; 0x5f4 <.L34>

000004f4 <.L46>:
     4f4:	68 89       	ldd	r22, Y+16	; 0x10
     4f6:	8f 85       	ldd	r24, Y+15	; 0x0f
     4f8:	0e 94 94 0d 	call	0x1b28	; 0x1b28 <DIO_enuSetPinValue>

000004fc <.LVL35>:
     4fc:	28 2f       	mov	r18, r24
     4fe:	39 2f       	mov	r19, r25

00000500 <.LVL36>:
     500:	81 11       	cpse	r24, r1
     502:	67 c0       	rjmp	.+206    	; 0x5d2 <.L52>

00000504 <.L44>:
     504:	69 89       	ldd	r22, Y+17	; 0x11
     506:	ce 01       	movw	r24, r28
     508:	0e 94 12 01 	call	0x224	; 0x224 <SEV_SEG_enuDisplayNum>

0000050c <.LVL38>:
     50c:	28 2f       	mov	r18, r24
     50e:	39 2f       	mov	r19, r25

00000510 <.LVL39>:
     510:	81 11       	cpse	r24, r1
     512:	62 c0       	rjmp	.+196    	; 0x5d8 <.L53>

00000514 <.Loc.166>:
     514:	f3 94       	inc	r15

00000516 <.L36>:
     516:	80 91 86 00 	lds	r24, 0x0086	; 0x800086 <SEV_SEG_u8NUM>
     51a:	f8 16       	cp	r15, r24
     51c:	08 f0       	brcs	.+2      	; 0x520 <.Loc.168>

0000051e <L0^A>:
     51e:	5f c0       	rjmp	.+190    	; 0x5de <.L54>

00000520 <.Loc.168>:
     520:	e8 01       	movw	r28, r16
     522:	83 e1       	ldi	r24, 0x13	; 19
     524:	f8 9e       	mul	r15, r24
     526:	c0 0d       	add	r28, r0
     528:	d1 1d       	adc	r29, r1
     52a:	11 24       	eor	r1, r1

0000052c <.Loc.170>:
     52c:	41 e0       	ldi	r20, 0x01	; 1
     52e:	6a 81       	ldd	r22, Y+2	; 0x02
     530:	89 81       	ldd	r24, Y+1	; 0x01
     532:	0e 94 5c 0d 	call	0x1ab8	; 0x1ab8 <DIO_enuSetPinDirection>

00000536 <.LVL41>:
     536:	28 2f       	mov	r18, r24
     538:	39 2f       	mov	r19, r25

0000053a <.LVL42>:
     53a:	81 11       	cpse	r24, r1
     53c:	c3 cf       	rjmp	.-122    	; 0x4c4 <.L55>

0000053e <.Loc.173>:
     53e:	41 e0       	ldi	r20, 0x01	; 1
     540:	6c 81       	ldd	r22, Y+4	; 0x04
     542:	8b 81       	ldd	r24, Y+3	; 0x03
     544:	0e 94 5c 0d 	call	0x1ab8	; 0x1ab8 <DIO_enuSetPinDirection>

00000548 <.LVL43>:
     548:	28 2f       	mov	r18, r24
     54a:	39 2f       	mov	r19, r25

0000054c <.LVL44>:
     54c:	81 11       	cpse	r24, r1
     54e:	bd cf       	rjmp	.-134    	; 0x4ca <.L56>

00000550 <.Loc.178>:
     550:	41 e0       	ldi	r20, 0x01	; 1
     552:	6e 81       	ldd	r22, Y+6	; 0x06
     554:	8d 81       	ldd	r24, Y+5	; 0x05
     556:	0e 94 5c 0d 	call	0x1ab8	; 0x1ab8 <DIO_enuSetPinDirection>

0000055a <.LVL45>:
     55a:	28 2f       	mov	r18, r24
     55c:	39 2f       	mov	r19, r25

0000055e <.LVL46>:
     55e:	81 11       	cpse	r24, r1
     560:	b7 cf       	rjmp	.-146    	; 0x4d0 <.L57>

00000562 <.Loc.183>:
     562:	41 e0       	ldi	r20, 0x01	; 1
     564:	68 85       	ldd	r22, Y+8	; 0x08
     566:	8f 81       	ldd	r24, Y+7	; 0x07
     568:	0e 94 5c 0d 	call	0x1ab8	; 0x1ab8 <DIO_enuSetPinDirection>

0000056c <.LVL47>:
     56c:	28 2f       	mov	r18, r24
     56e:	39 2f       	mov	r19, r25

00000570 <.LVL48>:
     570:	81 11       	cpse	r24, r1
     572:	b1 cf       	rjmp	.-158    	; 0x4d6 <.L58>

00000574 <.Loc.188>:
     574:	41 e0       	ldi	r20, 0x01	; 1
     576:	6a 85       	ldd	r22, Y+10	; 0x0a
     578:	89 85       	ldd	r24, Y+9	; 0x09
     57a:	0e 94 5c 0d 	call	0x1ab8	; 0x1ab8 <DIO_enuSetPinDirection>

0000057e <.LVL49>:
     57e:	28 2f       	mov	r18, r24
     580:	39 2f       	mov	r19, r25

00000582 <.LVL50>:
     582:	81 11       	cpse	r24, r1
     584:	ab cf       	rjmp	.-170    	; 0x4dc <.L59>

00000586 <.Loc.193>:
     586:	41 e0       	ldi	r20, 0x01	; 1
     588:	6c 85       	ldd	r22, Y+12	; 0x0c
     58a:	8b 85       	ldd	r24, Y+11	; 0x0b
     58c:	0e 94 5c 0d 	call	0x1ab8	; 0x1ab8 <DIO_enuSetPinDirection>

00000590 <.LVL51>:
     590:	28 2f       	mov	r18, r24
     592:	39 2f       	mov	r19, r25

00000594 <.LVL52>:
     594:	81 11       	cpse	r24, r1
     596:	a5 cf       	rjmp	.-182    	; 0x4e2 <.L60>

00000598 <.Loc.198>:
     598:	41 e0       	ldi	r20, 0x01	; 1
     59a:	6e 85       	ldd	r22, Y+14	; 0x0e
     59c:	8d 85       	ldd	r24, Y+13	; 0x0d
     59e:	0e 94 5c 0d 	call	0x1ab8	; 0x1ab8 <DIO_enuSetPinDirection>

000005a2 <.LVL53>:
     5a2:	28 2f       	mov	r18, r24
     5a4:	39 2f       	mov	r19, r25

000005a6 <.LVL54>:
     5a6:	81 11       	cpse	r24, r1
     5a8:	9f cf       	rjmp	.-194    	; 0x4e8 <.L61>

000005aa <.Loc.203>:
     5aa:	68 89       	ldd	r22, Y+16	; 0x10

000005ac <.Loc.205>:
     5ac:	6f 3f       	cpi	r22, 0xFF	; 255
     5ae:	09 f4       	brne	.+2      	; 0x5b2 <.Loc.206>

000005b0 <L0^A>:
     5b0:	a9 cf       	rjmp	.-174    	; 0x504 <.L44>

000005b2 <.Loc.206>:
     5b2:	41 e0       	ldi	r20, 0x01	; 1
     5b4:	8f 85       	ldd	r24, Y+15	; 0x0f
     5b6:	0e 94 5c 0d 	call	0x1ab8	; 0x1ab8 <DIO_enuSetPinDirection>

000005ba <.LVL55>:
     5ba:	28 2f       	mov	r18, r24
     5bc:	39 2f       	mov	r19, r25

000005be <.LVL56>:
     5be:	81 11       	cpse	r24, r1
     5c0:	96 cf       	rjmp	.-212    	; 0x4ee <.L62>

000005c2 <.Loc.211>:
     5c2:	9a 89       	ldd	r25, Y+18	; 0x12

000005c4 <.Loc.213>:
     5c4:	88 81       	ld	r24, Y

000005c6 <.Loc.214>:
     5c6:	41 e0       	ldi	r20, 0x01	; 1
     5c8:	98 17       	cp	r25, r24
     5ca:	09 f4       	brne	.+2      	; 0x5ce <L0^A+0x2>

000005cc <L0^A>:
     5cc:	93 cf       	rjmp	.-218    	; 0x4f4 <.L46>
     5ce:	40 e0       	ldi	r20, 0x00	; 0
     5d0:	91 cf       	rjmp	.-222    	; 0x4f4 <.L46>

000005d2 <.L52>:
     5d2:	c9 01       	movw	r24, r18
     5d4:	99 27       	eor	r25, r25

000005d6 <.Loc.216>:
     5d6:	0e c0       	rjmp	.+28     	; 0x5f4 <.L34>

000005d8 <.L53>:
     5d8:	c9 01       	movw	r24, r18
     5da:	99 27       	eor	r25, r25

000005dc <.Loc.218>:
     5dc:	0b c0       	rjmp	.+22     	; 0x5f4 <.L34>

000005de <.L54>:
     5de:	80 e0       	ldi	r24, 0x00	; 0
     5e0:	90 e0       	ldi	r25, 0x00	; 0

000005e2 <.LBB3>:
     5e2:	08 c0       	rjmp	.+16     	; 0x5f4 <.L34>

000005e4 <.L49>:
     5e4:	82 e0       	ldi	r24, 0x02	; 2
     5e6:	90 e0       	ldi	r25, 0x00	; 0

000005e8 <.LVL59>:
     5e8:	05 c0       	rjmp	.+10     	; 0x5f4 <.L34>

000005ea <.L50>:
     5ea:	88 e0       	ldi	r24, 0x08	; 8
     5ec:	90 e0       	ldi	r25, 0x00	; 0
     5ee:	02 c0       	rjmp	.+4      	; 0x5f4 <.L34>

000005f0 <.L51>:
     5f0:	85 e0       	ldi	r24, 0x05	; 5
     5f2:	90 e0       	ldi	r25, 0x00	; 0

000005f4 <.L34>:
     5f4:	df 91       	pop	r29
     5f6:	cf 91       	pop	r28
     5f8:	1f 91       	pop	r17
     5fa:	0f 91       	pop	r16
     5fc:	ff 90       	pop	r15
     5fe:	08 95       	ret

00000600 <SEV_SEG_enuDisplayOn>:
     600:	cf 93       	push	r28

00000602 <.LCFI14>:
     602:	df 93       	push	r29

00000604 <.LCFI15>:
     604:	c8 2f       	mov	r28, r24
     606:	d9 2f       	mov	r29, r25

00000608 <.Loc.229>:
     608:	8a 89       	ldd	r24, Y+18	; 0x12

0000060a <.LVL61>:
     60a:	81 30       	cpi	r24, 0x01	; 1
     60c:	41 f0       	breq	.+16     	; 0x61e <.L66>

0000060e <.L64>:
     60e:	69 89       	ldd	r22, Y+17	; 0x11
     610:	ce 01       	movw	r24, r28
     612:	0e 94 12 01 	call	0x224	; 0x224 <SEV_SEG_enuDisplayNum>

00000616 <.LVL62>:
     616:	90 e0       	ldi	r25, 0x00	; 0

00000618 <.L63>:
     618:	df 91       	pop	r29
     61a:	cf 91       	pop	r28
     61c:	08 95       	ret

0000061e <.L66>:
     61e:	ce 01       	movw	r24, r28
     620:	0e 94 df 01 	call	0x3be	; 0x3be <SEV_SEG_enuDotOn>

00000624 <.LVL64>:
     624:	28 2f       	mov	r18, r24
     626:	39 2f       	mov	r19, r25

00000628 <.LVL65>:
     628:	88 23       	and	r24, r24
     62a:	89 f3       	breq	.-30     	; 0x60e <.L64>

0000062c <.Loc.241>:
     62c:	c9 01       	movw	r24, r18
     62e:	99 27       	eor	r25, r25

00000630 <.Loc.242>:
     630:	f3 cf       	rjmp	.-26     	; 0x618 <.L63>

00000632 <SEV_SEG_enuDisplayOff>:
     632:	1f 93       	push	r17

00000634 <.LCFI16>:
     634:	cf 93       	push	r28

00000636 <.LCFI17>:
     636:	df 93       	push	r29

00000638 <.LCFI18>:
     638:	c8 2f       	mov	r28, r24
     63a:	d9 2f       	mov	r29, r25

0000063c <.Loc.245>:
     63c:	19 89       	ldd	r17, Y+17	; 0x11

0000063e <.LVL67>:
     63e:	60 e1       	ldi	r22, 0x10	; 16
     640:	ce 01       	movw	r24, r28

00000642 <.LVL68>:
     642:	0e 94 12 01 	call	0x224	; 0x224 <SEV_SEG_enuDisplayNum>

00000646 <.LVL69>:
     646:	19 8b       	std	Y+17, r17	; 0x11

00000648 <.Loc.253>:
     648:	98 89       	ldd	r25, Y+16	; 0x10

0000064a <.Loc.255>:
     64a:	9f 3f       	cpi	r25, 0xFF	; 255
     64c:	29 f4       	brne	.+10     	; 0x658 <.L70>

0000064e <.L68>:
     64e:	90 e0       	ldi	r25, 0x00	; 0

00000650 <.L67>:
     650:	df 91       	pop	r29
     652:	cf 91       	pop	r28
     654:	1f 91       	pop	r17

00000656 <.LVL72>:
     656:	08 95       	ret

00000658 <.L70>:
     658:	1a 89       	ldd	r17, Y+18	; 0x12

0000065a <.Loc.262>:
     65a:	ce 01       	movw	r24, r28

0000065c <.LVL75>:
     65c:	0e 94 14 02 	call	0x428	; 0x428 <SEV_SEG_enuDotOff>

00000660 <.LVL76>:
     660:	28 2f       	mov	r18, r24
     662:	39 2f       	mov	r19, r25

00000664 <.LVL77>:
     664:	1a 8b       	std	Y+18, r17	; 0x12

00000666 <.Loc.267>:
     666:	88 23       	and	r24, r24
     668:	91 f3       	breq	.-28     	; 0x64e <.L68>

0000066a <.Loc.269>:
     66a:	c9 01       	movw	r24, r18
     66c:	99 27       	eor	r25, r25

0000066e <.Loc.270>:
     66e:	f0 cf       	rjmp	.-32     	; 0x650 <.L67>

00000670 <SEV_SEG_enuIncrementNum>:
     670:	e8 2f       	mov	r30, r24
     672:	f9 2f       	mov	r31, r25

00000674 <.Loc.273>:
     674:	61 89       	ldd	r22, Z+17	; 0x11
     676:	70 e0       	ldi	r23, 0x00	; 0

00000678 <.Loc.275>:
     678:	6f 5f       	subi	r22, 0xFF	; 255
     67a:	7f 4f       	sbci	r23, 0xFF	; 255

0000067c <.Loc.276>:
     67c:	6f 70       	andi	r22, 0x0F	; 15
     67e:	70 78       	andi	r23, 0x80	; 128

00000680 <.Loc.277>:
     680:	cf 01       	movw	r24, r30

00000682 <.LVL79>:
     682:	0e 94 12 01 	call	0x224	; 0x224 <SEV_SEG_enuDisplayNum>

00000686 <.LVL80>:
     686:	08 95       	ret

00000688 <SEV_SEG_enuDecrementNum>:
     688:	e8 2f       	mov	r30, r24
     68a:	f9 2f       	mov	r31, r25

0000068c <.Loc.282>:
     68c:	81 89       	ldd	r24, Z+17	; 0x11

0000068e <.LVL82>:
     68e:	81 50       	subi	r24, 0x01	; 1
     690:	99 0b       	sbc	r25, r25

00000692 <.Loc.285>:
     692:	bc 01       	movw	r22, r24
     694:	6f 70       	andi	r22, 0x0F	; 15
     696:	70 78       	andi	r23, 0x80	; 128
     698:	99 23       	and	r25, r25
     69a:	24 f0       	brlt	.+8      	; 0x6a4 <.L75>

0000069c <.L74>:
     69c:	cf 01       	movw	r24, r30
     69e:	0e 94 12 01 	call	0x224	; 0x224 <SEV_SEG_enuDisplayNum>

000006a2 <.LVL83>:
     6a2:	08 95       	ret

000006a4 <.L75>:
     6a4:	61 50       	subi	r22, 0x01	; 1
     6a6:	71 09       	sbc	r23, r1
     6a8:	60 6f       	ori	r22, 0xF0	; 240
     6aa:	7f 6f       	ori	r23, 0xFF	; 255
     6ac:	6f 5f       	subi	r22, 0xFF	; 255
     6ae:	7f 4f       	sbci	r23, 0xFF	; 255
     6b0:	f5 cf       	rjmp	.-22     	; 0x69c <.L74>

000006b2 <EEPROM_enuInit>:
     6b2:	06 b6       	in	r0, 0x36	; 54
     6b4:	02 fe       	sbrs	r0, 2
     6b6:	17 c0       	rjmp	.+46     	; 0x6e6 <.L5>

000006b8 <.LBB2>:
     6b8:	80 e0       	ldi	r24, 0x00	; 0

000006ba <.L3>:
     6ba:	90 91 87 00 	lds	r25, 0x0087	; 0x800087 <EEPROM_u8ChipsCount>
     6be:	89 17       	cp	r24, r25
     6c0:	78 f4       	brcc	.+30     	; 0x6e0 <.L7>

000006c2 <.Loc.5>:
     6c2:	28 2f       	mov	r18, r24
     6c4:	30 e0       	ldi	r19, 0x00	; 0
     6c6:	f9 01       	movw	r30, r18
     6c8:	ee 0f       	add	r30, r30
     6ca:	ff 1f       	adc	r31, r31
     6cc:	e2 0f       	add	r30, r18
     6ce:	f3 1f       	adc	r31, r19
     6d0:	ef 53       	subi	r30, 0x3F	; 63
     6d2:	ff 4f       	sbci	r31, 0xFF	; 255
     6d4:	90 81       	ld	r25, Z

000006d6 <.Loc.7>:
     6d6:	91 50       	subi	r25, 0x01	; 1

000006d8 <.Loc.8>:
     6d8:	98 37       	cpi	r25, 0x78	; 120
     6da:	40 f4       	brcc	.+16     	; 0x6ec <.L6>

000006dc <.Loc.9>:
     6dc:	8f 5f       	subi	r24, 0xFF	; 255

000006de <.Loc.10>:
     6de:	ed cf       	rjmp	.-38     	; 0x6ba <.L3>

000006e0 <.L7>:
     6e0:	80 e0       	ldi	r24, 0x00	; 0
     6e2:	90 e0       	ldi	r25, 0x00	; 0

000006e4 <.LBB3>:
     6e4:	08 95       	ret

000006e6 <.L5>:
     6e6:	8a e0       	ldi	r24, 0x0A	; 10
     6e8:	90 e0       	ldi	r25, 0x00	; 0
     6ea:	08 95       	ret

000006ec <.L6>:
     6ec:	84 e0       	ldi	r24, 0x04	; 4
     6ee:	90 e0       	ldi	r25, 0x00	; 0

000006f0 <.LBE4>:
     6f0:	08 95       	ret

000006f2 <EEPROM_enuWriteByte>:
     6f2:	ef 92       	push	r14

000006f4 <.LCFI0>:
     6f4:	ff 92       	push	r15

000006f6 <.LCFI1>:
     6f6:	0f 93       	push	r16

000006f8 <.LCFI2>:
     6f8:	1f 93       	push	r17

000006fa <.LCFI3>:
     6fa:	cf 93       	push	r28

000006fc <.LCFI4>:
     6fc:	df 93       	push	r29

000006fe <.LCFI5>:
     6fe:	0f 92       	push	r0

00000700 <.LCFI6>:
     700:	cd b7       	in	r28, 0x3d	; 61
     702:	de b7       	in	r29, 0x3e	; 62

00000704 <.LCFI7>:
     704:	08 2f       	mov	r16, r24
     706:	19 2f       	mov	r17, r25
     708:	f6 2e       	mov	r15, r22
     70a:	e4 2e       	mov	r14, r20

0000070c <.Loc.20>:
     70c:	01 15       	cp	r16, r1
     70e:	11 05       	cpc	r17, r1
     710:	09 f4       	brne	.+2      	; 0x714 <.Loc.22>

00000712 <L0^A>:
     712:	76 c0       	rjmp	.+236    	; 0x800 <.L18>

00000714 <.Loc.22>:
     714:	ce 01       	movw	r24, r28

00000716 <.LVL6>:
     716:	01 96       	adiw	r24, 0x01	; 1
     718:	0e 94 92 0f 	call	0x1f24	; 0x1f24 <I2C_enuStartCondition_Master>

0000071c <.LVL7>:
     71c:	89 81       	ldd	r24, Y+1	; 0x01

0000071e <.Loc.27>:
     71e:	88 30       	cpi	r24, 0x08	; 8
     720:	09 f0       	breq	.+2      	; 0x724 <.Loc.28>

00000722 <L0^A>:
     722:	44 c0       	rjmp	.+136    	; 0x7ac <.L19>

00000724 <.Loc.28>:
     724:	ae 01       	movw	r20, r28
     726:	4f 5f       	subi	r20, 0xFF	; 255
     728:	5f 4f       	sbci	r21, 0xFF	; 255
     72a:	60 e0       	ldi	r22, 0x00	; 0
     72c:	f8 01       	movw	r30, r16
     72e:	80 81       	ld	r24, Z
     730:	0e 94 aa 0f 	call	0x1f54	; 0x1f54 <I2C_enuSendSLA_R_W_Master>

00000734 <.LVL8>:
     734:	89 81       	ldd	r24, Y+1	; 0x01

00000736 <.Loc.31>:
     736:	88 31       	cpi	r24, 0x18	; 24
     738:	09 f0       	breq	.+2      	; 0x73c <.Loc.32>

0000073a <L0^A>:
     73a:	44 c0       	rjmp	.+136    	; 0x7c4 <.L20>

0000073c <.Loc.32>:
     73c:	be 01       	movw	r22, r28
     73e:	6f 5f       	subi	r22, 0xFF	; 255
     740:	7f 4f       	sbci	r23, 0xFF	; 255
     742:	8f 2d       	mov	r24, r15
     744:	0e 94 cb 0f 	call	0x1f96	; 0x1f96 <I2C_enuSendDataByte_Master>

00000748 <.LVL9>:
     748:	89 81       	ldd	r24, Y+1	; 0x01

0000074a <.Loc.35>:
     74a:	88 32       	cpi	r24, 0x28	; 40
     74c:	09 f0       	breq	.+2      	; 0x750 <.Loc.36>

0000074e <L0^A>:
     74e:	3f c0       	rjmp	.+126    	; 0x7ce <.L21>

00000750 <.Loc.36>:
     750:	be 01       	movw	r22, r28
     752:	6f 5f       	subi	r22, 0xFF	; 255
     754:	7f 4f       	sbci	r23, 0xFF	; 255
     756:	8e 2d       	mov	r24, r14
     758:	0e 94 cb 0f 	call	0x1f96	; 0x1f96 <I2C_enuSendDataByte_Master>

0000075c <.LVL10>:
     75c:	89 81       	ldd	r24, Y+1	; 0x01

0000075e <.Loc.39>:
     75e:	88 32       	cpi	r24, 0x28	; 40
     760:	d9 f5       	brne	.+118    	; 0x7d8 <.L22>

00000762 <.Loc.40>:
     762:	0e 94 a7 0f 	call	0x1f4e	; 0x1f4e <I2C_enuStopCondition_Master>

00000766 <.LVL11>:
     766:	19 82       	std	Y+1, r1	; 0x01

00000768 <.Loc.43>:
     768:	ce 01       	movw	r24, r28
     76a:	01 96       	adiw	r24, 0x01	; 1
     76c:	0e 94 92 0f 	call	0x1f24	; 0x1f24 <I2C_enuStartCondition_Master>

00000770 <.LVL12>:
     770:	89 81       	ldd	r24, Y+1	; 0x01

00000772 <.Loc.46>:
     772:	88 30       	cpi	r24, 0x08	; 8
     774:	b1 f5       	brne	.+108    	; 0x7e2 <.L23>

00000776 <.Loc.47>:
     776:	ae 01       	movw	r20, r28
     778:	4f 5f       	subi	r20, 0xFF	; 255
     77a:	5f 4f       	sbci	r21, 0xFF	; 255
     77c:	60 e0       	ldi	r22, 0x00	; 0
     77e:	f8 01       	movw	r30, r16
     780:	80 81       	ld	r24, Z
     782:	0e 94 aa 0f 	call	0x1f54	; 0x1f54 <I2C_enuSendSLA_R_W_Master>

00000786 <.L15>:
     786:	89 81       	ldd	r24, Y+1	; 0x01
     788:	88 31       	cpi	r24, 0x18	; 24
     78a:	a9 f1       	breq	.+106    	; 0x7f6 <.L24>

0000078c <.Loc.50>:
     78c:	ce 01       	movw	r24, r28
     78e:	01 96       	adiw	r24, 0x01	; 1
     790:	0e 94 a4 0f 	call	0x1f48	; 0x1f48 <I2C_enuRepeatedStartCondition_Master>

00000794 <.LVL14>:
     794:	89 81       	ldd	r24, Y+1	; 0x01

00000796 <.Loc.53>:
     796:	80 31       	cpi	r24, 0x10	; 16
     798:	49 f5       	brne	.+82     	; 0x7ec <.L25>

0000079a <.Loc.54>:
     79a:	ae 01       	movw	r20, r28
     79c:	4f 5f       	subi	r20, 0xFF	; 255
     79e:	5f 4f       	sbci	r21, 0xFF	; 255
     7a0:	60 e0       	ldi	r22, 0x00	; 0
     7a2:	f8 01       	movw	r30, r16
     7a4:	80 81       	ld	r24, Z
     7a6:	0e 94 aa 0f 	call	0x1f54	; 0x1f54 <I2C_enuSendSLA_R_W_Master>

000007aa <.LVL15>:
     7aa:	ed cf       	rjmp	.-38     	; 0x786 <.L15>

000007ac <.L19>:
     7ac:	0e 94 a7 0f 	call	0x1f4e	; 0x1f4e <I2C_enuStopCondition_Master>

000007b0 <.LVL16>:
     7b0:	8c e0       	ldi	r24, 0x0C	; 12
     7b2:	90 e0       	ldi	r25, 0x00	; 0

000007b4 <.L8>:
     7b4:	0f 90       	pop	r0
     7b6:	df 91       	pop	r29
     7b8:	cf 91       	pop	r28
     7ba:	1f 91       	pop	r17
     7bc:	0f 91       	pop	r16
     7be:	ff 90       	pop	r15

000007c0 <.LVL17>:
     7c0:	ef 90       	pop	r14

000007c2 <.LVL18>:
     7c2:	08 95       	ret

000007c4 <.L20>:
     7c4:	0e 94 a7 0f 	call	0x1f4e	; 0x1f4e <I2C_enuStopCondition_Master>

000007c8 <.LVL20>:
     7c8:	8c e0       	ldi	r24, 0x0C	; 12
     7ca:	90 e0       	ldi	r25, 0x00	; 0
     7cc:	f3 cf       	rjmp	.-26     	; 0x7b4 <.L8>

000007ce <.L21>:
     7ce:	0e 94 a7 0f 	call	0x1f4e	; 0x1f4e <I2C_enuStopCondition_Master>

000007d2 <.LVL21>:
     7d2:	8c e0       	ldi	r24, 0x0C	; 12
     7d4:	90 e0       	ldi	r25, 0x00	; 0
     7d6:	ee cf       	rjmp	.-36     	; 0x7b4 <.L8>

000007d8 <.L22>:
     7d8:	0e 94 a7 0f 	call	0x1f4e	; 0x1f4e <I2C_enuStopCondition_Master>

000007dc <.LVL22>:
     7dc:	8c e0       	ldi	r24, 0x0C	; 12
     7de:	90 e0       	ldi	r25, 0x00	; 0
     7e0:	e9 cf       	rjmp	.-46     	; 0x7b4 <.L8>

000007e2 <.L23>:
     7e2:	0e 94 a7 0f 	call	0x1f4e	; 0x1f4e <I2C_enuStopCondition_Master>

000007e6 <.LVL23>:
     7e6:	8c e0       	ldi	r24, 0x0C	; 12
     7e8:	90 e0       	ldi	r25, 0x00	; 0
     7ea:	e4 cf       	rjmp	.-56     	; 0x7b4 <.L8>

000007ec <.L25>:
     7ec:	0e 94 a7 0f 	call	0x1f4e	; 0x1f4e <I2C_enuStopCondition_Master>

000007f0 <.LVL24>:
     7f0:	8c e0       	ldi	r24, 0x0C	; 12
     7f2:	90 e0       	ldi	r25, 0x00	; 0
     7f4:	df cf       	rjmp	.-66     	; 0x7b4 <.L8>

000007f6 <.L24>:
     7f6:	0e 94 a7 0f 	call	0x1f4e	; 0x1f4e <I2C_enuStopCondition_Master>

000007fa <.LVL25>:
     7fa:	80 e0       	ldi	r24, 0x00	; 0
     7fc:	90 e0       	ldi	r25, 0x00	; 0
     7fe:	da cf       	rjmp	.-76     	; 0x7b4 <.L8>

00000800 <.L18>:
     800:	82 e0       	ldi	r24, 0x02	; 2
     802:	90 e0       	ldi	r25, 0x00	; 0

00000804 <.LVL27>:
     804:	d7 cf       	rjmp	.-82     	; 0x7b4 <.L8>

00000806 <EEPROM_enuWritePage>:
     806:	cf 92       	push	r12

00000808 <.LCFI8>:
     808:	df 92       	push	r13

0000080a <.LCFI9>:
     80a:	ef 92       	push	r14

0000080c <.LCFI10>:
     80c:	ff 92       	push	r15

0000080e <.LCFI11>:
     80e:	0f 93       	push	r16

00000810 <.LCFI12>:
     810:	1f 93       	push	r17

00000812 <.LCFI13>:
     812:	cf 93       	push	r28

00000814 <.LCFI14>:
     814:	df 93       	push	r29

00000816 <.LCFI15>:
     816:	0f 92       	push	r0

00000818 <.LCFI16>:
     818:	cd b7       	in	r28, 0x3d	; 61
     81a:	de b7       	in	r29, 0x3e	; 62

0000081c <.LCFI17>:
     81c:	c8 2e       	mov	r12, r24
     81e:	d9 2e       	mov	r13, r25
     820:	16 2f       	mov	r17, r22
     822:	e4 2e       	mov	r14, r20
     824:	f5 2e       	mov	r15, r21
     826:	02 2f       	mov	r16, r18

00000828 <.Loc.83>:
     828:	c1 14       	cp	r12, r1
     82a:	d1 04       	cpc	r13, r1
     82c:	09 f4       	brne	.+2      	; 0x830 <.Loc.85>

0000082e <L0^A>:
     82e:	4e c0       	rjmp	.+156    	; 0x8cc <.L33>

00000830 <.Loc.85>:
     830:	e1 14       	cp	r14, r1
     832:	f1 04       	cpc	r15, r1
     834:	09 f4       	brne	.+2      	; 0x838 <.Loc.86>

00000836 <L0^A>:
     836:	4d c0       	rjmp	.+154    	; 0x8d2 <.L34>

00000838 <.Loc.86>:
     838:	f6 01       	movw	r30, r12
     83a:	81 81       	ldd	r24, Z+1	; 0x01

0000083c <.LVL29>:
     83c:	82 17       	cp	r24, r18
     83e:	08 f4       	brcc	.+2      	; 0x842 <.Loc.89>

00000840 <L0^A>:
     840:	4b c0       	rjmp	.+150    	; 0x8d8 <.L35>

00000842 <.Loc.89>:
     842:	ce 01       	movw	r24, r28
     844:	01 96       	adiw	r24, 0x01	; 1
     846:	0e 94 92 0f 	call	0x1f24	; 0x1f24 <I2C_enuStartCondition_Master>

0000084a <.LVL30>:
     84a:	89 81       	ldd	r24, Y+1	; 0x01

0000084c <.Loc.93>:
     84c:	88 30       	cpi	r24, 0x08	; 8
     84e:	29 f5       	brne	.+74     	; 0x89a <.L37>

00000850 <.Loc.94>:
     850:	ae 01       	movw	r20, r28
     852:	4f 5f       	subi	r20, 0xFF	; 255
     854:	5f 4f       	sbci	r21, 0xFF	; 255
     856:	60 e0       	ldi	r22, 0x00	; 0
     858:	f6 01       	movw	r30, r12
     85a:	80 81       	ld	r24, Z
     85c:	0e 94 aa 0f 	call	0x1f54	; 0x1f54 <I2C_enuSendSLA_R_W_Master>

00000860 <.LVL31>:
     860:	89 81       	ldd	r24, Y+1	; 0x01

00000862 <.Loc.97>:
     862:	88 31       	cpi	r24, 0x18	; 24
     864:	f9 f4       	brne	.+62     	; 0x8a4 <.L38>

00000866 <.Loc.98>:
     866:	be 01       	movw	r22, r28
     868:	6f 5f       	subi	r22, 0xFF	; 255
     86a:	7f 4f       	sbci	r23, 0xFF	; 255
     86c:	81 2f       	mov	r24, r17
     86e:	0e 94 cb 0f 	call	0x1f96	; 0x1f96 <I2C_enuSendDataByte_Master>

00000872 <.LVL32>:
     872:	89 81       	ldd	r24, Y+1	; 0x01

00000874 <.Loc.101>:
     874:	88 32       	cpi	r24, 0x28	; 40
     876:	d9 f4       	brne	.+54     	; 0x8ae <.L39>

00000878 <.LBB5>:
     878:	10 e0       	ldi	r17, 0x00	; 0

0000087a <.L30>:
     87a:	10 17       	cp	r17, r16
     87c:	10 f5       	brcc	.+68     	; 0x8c2 <.L40>

0000087e <.Loc.104>:
     87e:	be 01       	movw	r22, r28
     880:	6f 5f       	subi	r22, 0xFF	; 255
     882:	7f 4f       	sbci	r23, 0xFF	; 255
     884:	f7 01       	movw	r30, r14
     886:	e1 0f       	add	r30, r17
     888:	f1 1d       	adc	r31, r1
     88a:	80 81       	ld	r24, Z
     88c:	0e 94 cb 0f 	call	0x1f96	; 0x1f96 <I2C_enuSendDataByte_Master>

00000890 <.LVL34>:
     890:	89 81       	ldd	r24, Y+1	; 0x01

00000892 <.Loc.107>:
     892:	88 32       	cpi	r24, 0x28	; 40
     894:	89 f4       	brne	.+34     	; 0x8b8 <.L41>

00000896 <.Loc.108>:
     896:	1f 5f       	subi	r17, 0xFF	; 255

00000898 <.Loc.109>:
     898:	f0 cf       	rjmp	.-32     	; 0x87a <.L30>

0000089a <.L37>:
     89a:	0e 94 a7 0f 	call	0x1f4e	; 0x1f4e <I2C_enuStopCondition_Master>

0000089e <.LVL37>:
     89e:	8c e0       	ldi	r24, 0x0C	; 12
     8a0:	90 e0       	ldi	r25, 0x00	; 0
     8a2:	1c c0       	rjmp	.+56     	; 0x8dc <.L26>

000008a4 <.L38>:
     8a4:	0e 94 a7 0f 	call	0x1f4e	; 0x1f4e <I2C_enuStopCondition_Master>

000008a8 <.LVL38>:
     8a8:	8c e0       	ldi	r24, 0x0C	; 12
     8aa:	90 e0       	ldi	r25, 0x00	; 0
     8ac:	17 c0       	rjmp	.+46     	; 0x8dc <.L26>

000008ae <.L39>:
     8ae:	0e 94 a7 0f 	call	0x1f4e	; 0x1f4e <I2C_enuStopCondition_Master>

000008b2 <.LVL39>:
     8b2:	8c e0       	ldi	r24, 0x0C	; 12
     8b4:	90 e0       	ldi	r25, 0x00	; 0
     8b6:	12 c0       	rjmp	.+36     	; 0x8dc <.L26>

000008b8 <.L41>:
     8b8:	0e 94 a7 0f 	call	0x1f4e	; 0x1f4e <I2C_enuStopCondition_Master>

000008bc <.LVL41>:
     8bc:	8c e0       	ldi	r24, 0x0C	; 12
     8be:	90 e0       	ldi	r25, 0x00	; 0
     8c0:	0d c0       	rjmp	.+26     	; 0x8dc <.L26>

000008c2 <.L40>:
     8c2:	0e 94 a7 0f 	call	0x1f4e	; 0x1f4e <I2C_enuStopCondition_Master>

000008c6 <.LVL42>:
     8c6:	80 e0       	ldi	r24, 0x00	; 0
     8c8:	90 e0       	ldi	r25, 0x00	; 0
     8ca:	08 c0       	rjmp	.+16     	; 0x8dc <.L26>

000008cc <.L33>:
     8cc:	82 e0       	ldi	r24, 0x02	; 2
     8ce:	90 e0       	ldi	r25, 0x00	; 0

000008d0 <.LVL44>:
     8d0:	05 c0       	rjmp	.+10     	; 0x8dc <.L26>

000008d2 <.L34>:
     8d2:	82 e0       	ldi	r24, 0x02	; 2
     8d4:	90 e0       	ldi	r25, 0x00	; 0

000008d6 <.LVL46>:
     8d6:	02 c0       	rjmp	.+4      	; 0x8dc <.L26>

000008d8 <.L35>:
     8d8:	84 e0       	ldi	r24, 0x04	; 4
     8da:	90 e0       	ldi	r25, 0x00	; 0

000008dc <.L26>:
     8dc:	0f 90       	pop	r0
     8de:	df 91       	pop	r29
     8e0:	cf 91       	pop	r28
     8e2:	1f 91       	pop	r17
     8e4:	0f 91       	pop	r16

000008e6 <.LVL48>:
     8e6:	ff 90       	pop	r15
     8e8:	ef 90       	pop	r14
     8ea:	df 90       	pop	r13
     8ec:	cf 90       	pop	r12
     8ee:	08 95       	ret

000008f0 <EEPROM_enuReadImmediateByte>:
     8f0:	ef 92       	push	r14

000008f2 <.LCFI18>:
     8f2:	ff 92       	push	r15

000008f4 <.LCFI19>:
     8f4:	0f 93       	push	r16

000008f6 <.LCFI20>:
     8f6:	1f 93       	push	r17

000008f8 <.LCFI21>:
     8f8:	cf 93       	push	r28

000008fa <.LCFI22>:
     8fa:	df 93       	push	r29

000008fc <.LCFI23>:
     8fc:	0f 92       	push	r0

000008fe <.LCFI24>:
     8fe:	cd b7       	in	r28, 0x3d	; 61
     900:	de b7       	in	r29, 0x3e	; 62

00000902 <.LCFI25>:
     902:	08 2f       	mov	r16, r24
     904:	19 2f       	mov	r17, r25
     906:	e6 2e       	mov	r14, r22
     908:	f7 2e       	mov	r15, r23

0000090a <.Loc.135>:
     90a:	01 15       	cp	r16, r1
     90c:	11 05       	cpc	r17, r1
     90e:	d1 f1       	breq	.+116    	; 0x984 <.L47>

00000910 <.Loc.137>:
     910:	e1 14       	cp	r14, r1
     912:	f1 04       	cpc	r15, r1
     914:	d1 f1       	breq	.+116    	; 0x98a <.L48>

00000916 <.Loc.138>:
     916:	ce 01       	movw	r24, r28

00000918 <.LVL50>:
     918:	01 96       	adiw	r24, 0x01	; 1
     91a:	0e 94 92 0f 	call	0x1f24	; 0x1f24 <I2C_enuStartCondition_Master>

0000091e <.LVL51>:
     91e:	89 81       	ldd	r24, Y+1	; 0x01

00000920 <.Loc.143>:
     920:	88 30       	cpi	r24, 0x08	; 8
     922:	d1 f4       	brne	.+52     	; 0x958 <.L49>

00000924 <.Loc.144>:
     924:	ae 01       	movw	r20, r28
     926:	4f 5f       	subi	r20, 0xFF	; 255
     928:	5f 4f       	sbci	r21, 0xFF	; 255
     92a:	61 e0       	ldi	r22, 0x01	; 1
     92c:	f8 01       	movw	r30, r16
     92e:	80 81       	ld	r24, Z
     930:	0e 94 aa 0f 	call	0x1f54	; 0x1f54 <I2C_enuSendSLA_R_W_Master>

00000934 <.LVL52>:
     934:	89 81       	ldd	r24, Y+1	; 0x01

00000936 <.Loc.147>:
     936:	80 34       	cpi	r24, 0x40	; 64
     938:	d9 f4       	brne	.+54     	; 0x970 <.L50>

0000093a <.Loc.148>:
     93a:	ae 01       	movw	r20, r28
     93c:	4f 5f       	subi	r20, 0xFF	; 255
     93e:	5f 4f       	sbci	r21, 0xFF	; 255
     940:	60 e0       	ldi	r22, 0x00	; 0
     942:	c7 01       	movw	r24, r14
     944:	0e 94 de 0f 	call	0x1fbc	; 0x1fbc <I2C_enuReceiveDataByte_Master>

00000948 <.LVL53>:
     948:	89 81       	ldd	r24, Y+1	; 0x01

0000094a <.Loc.151>:
     94a:	80 35       	cpi	r24, 0x50	; 80
     94c:	b1 f4       	brne	.+44     	; 0x97a <.L51>

0000094e <.Loc.152>:
     94e:	0e 94 a7 0f 	call	0x1f4e	; 0x1f4e <I2C_enuStopCondition_Master>

00000952 <.LVL54>:
     952:	80 e0       	ldi	r24, 0x00	; 0
     954:	90 e0       	ldi	r25, 0x00	; 0
     956:	04 c0       	rjmp	.+8      	; 0x960 <.L42>

00000958 <.L49>:
     958:	0e 94 a7 0f 	call	0x1f4e	; 0x1f4e <I2C_enuStopCondition_Master>

0000095c <.LVL55>:
     95c:	8c e0       	ldi	r24, 0x0C	; 12
     95e:	90 e0       	ldi	r25, 0x00	; 0

00000960 <.L42>:
     960:	0f 90       	pop	r0
     962:	df 91       	pop	r29
     964:	cf 91       	pop	r28
     966:	1f 91       	pop	r17
     968:	0f 91       	pop	r16
     96a:	ff 90       	pop	r15
     96c:	ef 90       	pop	r14
     96e:	08 95       	ret

00000970 <.L50>:
     970:	0e 94 a7 0f 	call	0x1f4e	; 0x1f4e <I2C_enuStopCondition_Master>

00000974 <.LVL56>:
     974:	8c e0       	ldi	r24, 0x0C	; 12
     976:	90 e0       	ldi	r25, 0x00	; 0
     978:	f3 cf       	rjmp	.-26     	; 0x960 <.L42>

0000097a <.L51>:
     97a:	0e 94 a7 0f 	call	0x1f4e	; 0x1f4e <I2C_enuStopCondition_Master>

0000097e <.LVL57>:
     97e:	8c e0       	ldi	r24, 0x0C	; 12
     980:	90 e0       	ldi	r25, 0x00	; 0
     982:	ee cf       	rjmp	.-36     	; 0x960 <.L42>

00000984 <.L47>:
     984:	82 e0       	ldi	r24, 0x02	; 2
     986:	90 e0       	ldi	r25, 0x00	; 0

00000988 <.LVL59>:
     988:	eb cf       	rjmp	.-42     	; 0x960 <.L42>

0000098a <.L48>:
     98a:	82 e0       	ldi	r24, 0x02	; 2
     98c:	90 e0       	ldi	r25, 0x00	; 0

0000098e <.LVL61>:
     98e:	e8 cf       	rjmp	.-48     	; 0x960 <.L42>

00000990 <EEPROM_enuReadByte>:
     990:	df 92       	push	r13

00000992 <.LCFI26>:
     992:	ef 92       	push	r14

00000994 <.LCFI27>:
     994:	ff 92       	push	r15

00000996 <.LCFI28>:
     996:	0f 93       	push	r16

00000998 <.LCFI29>:
     998:	1f 93       	push	r17

0000099a <.LCFI30>:
     99a:	cf 93       	push	r28

0000099c <.LCFI31>:
     99c:	df 93       	push	r29

0000099e <.LCFI32>:
     99e:	0f 92       	push	r0

000009a0 <.LCFI33>:
     9a0:	cd b7       	in	r28, 0x3d	; 61
     9a2:	de b7       	in	r29, 0x3e	; 62

000009a4 <.LCFI34>:
     9a4:	08 2f       	mov	r16, r24
     9a6:	19 2f       	mov	r17, r25
     9a8:	d6 2e       	mov	r13, r22
     9aa:	e4 2e       	mov	r14, r20
     9ac:	f5 2e       	mov	r15, r21

000009ae <.Loc.171>:
     9ae:	01 15       	cp	r16, r1
     9b0:	11 05       	cpc	r17, r1
     9b2:	09 f4       	brne	.+2      	; 0x9b6 <.Loc.173>

000009b4 <L0^A>:
     9b4:	66 c0       	rjmp	.+204    	; 0xa82 <.L60>

000009b6 <.Loc.173>:
     9b6:	e1 14       	cp	r14, r1
     9b8:	f1 04       	cpc	r15, r1
     9ba:	09 f4       	brne	.+2      	; 0x9be <.Loc.174>

000009bc <L0^A>:
     9bc:	65 c0       	rjmp	.+202    	; 0xa88 <.L61>

000009be <.Loc.174>:
     9be:	ce 01       	movw	r24, r28

000009c0 <.LVL63>:
     9c0:	01 96       	adiw	r24, 0x01	; 1
     9c2:	0e 94 92 0f 	call	0x1f24	; 0x1f24 <I2C_enuStartCondition_Master>

000009c6 <.LVL64>:
     9c6:	89 81       	ldd	r24, Y+1	; 0x01

000009c8 <.Loc.179>:
     9c8:	88 30       	cpi	r24, 0x08	; 8
     9ca:	a9 f5       	brne	.+106    	; 0xa36 <.L62>

000009cc <.Loc.180>:
     9cc:	ae 01       	movw	r20, r28
     9ce:	4f 5f       	subi	r20, 0xFF	; 255
     9d0:	5f 4f       	sbci	r21, 0xFF	; 255
     9d2:	60 e0       	ldi	r22, 0x00	; 0
     9d4:	f8 01       	movw	r30, r16
     9d6:	80 81       	ld	r24, Z
     9d8:	0e 94 aa 0f 	call	0x1f54	; 0x1f54 <I2C_enuSendSLA_R_W_Master>

000009dc <.LVL65>:
     9dc:	89 81       	ldd	r24, Y+1	; 0x01

000009de <.Loc.183>:
     9de:	88 31       	cpi	r24, 0x18	; 24
     9e0:	b9 f5       	brne	.+110    	; 0xa50 <.L63>

000009e2 <.Loc.184>:
     9e2:	be 01       	movw	r22, r28
     9e4:	6f 5f       	subi	r22, 0xFF	; 255
     9e6:	7f 4f       	sbci	r23, 0xFF	; 255
     9e8:	8d 2d       	mov	r24, r13
     9ea:	0e 94 cb 0f 	call	0x1f96	; 0x1f96 <I2C_enuSendDataByte_Master>

000009ee <.LVL66>:
     9ee:	89 81       	ldd	r24, Y+1	; 0x01

000009f0 <.Loc.187>:
     9f0:	88 32       	cpi	r24, 0x28	; 40
     9f2:	99 f5       	brne	.+102    	; 0xa5a <.L64>

000009f4 <.Loc.188>:
     9f4:	ce 01       	movw	r24, r28
     9f6:	01 96       	adiw	r24, 0x01	; 1
     9f8:	0e 94 a4 0f 	call	0x1f48	; 0x1f48 <I2C_enuRepeatedStartCondition_Master>

000009fc <.LVL67>:
     9fc:	89 81       	ldd	r24, Y+1	; 0x01

000009fe <.Loc.191>:
     9fe:	80 31       	cpi	r24, 0x10	; 16
     a00:	89 f5       	brne	.+98     	; 0xa64 <.L65>

00000a02 <.Loc.192>:
     a02:	ae 01       	movw	r20, r28
     a04:	4f 5f       	subi	r20, 0xFF	; 255
     a06:	5f 4f       	sbci	r21, 0xFF	; 255
     a08:	61 e0       	ldi	r22, 0x01	; 1
     a0a:	f8 01       	movw	r30, r16
     a0c:	80 81       	ld	r24, Z
     a0e:	0e 94 aa 0f 	call	0x1f54	; 0x1f54 <I2C_enuSendSLA_R_W_Master>

00000a12 <.LVL68>:
     a12:	89 81       	ldd	r24, Y+1	; 0x01

00000a14 <.Loc.195>:
     a14:	80 34       	cpi	r24, 0x40	; 64
     a16:	59 f5       	brne	.+86     	; 0xa6e <.L66>

00000a18 <.Loc.196>:
     a18:	ae 01       	movw	r20, r28
     a1a:	4f 5f       	subi	r20, 0xFF	; 255
     a1c:	5f 4f       	sbci	r21, 0xFF	; 255
     a1e:	60 e0       	ldi	r22, 0x00	; 0
     a20:	c7 01       	movw	r24, r14
     a22:	0e 94 de 0f 	call	0x1fbc	; 0x1fbc <I2C_enuReceiveDataByte_Master>

00000a26 <.LVL69>:
     a26:	89 81       	ldd	r24, Y+1	; 0x01

00000a28 <.Loc.199>:
     a28:	88 35       	cpi	r24, 0x58	; 88
     a2a:	31 f5       	brne	.+76     	; 0xa78 <.L67>

00000a2c <.Loc.200>:
     a2c:	0e 94 a7 0f 	call	0x1f4e	; 0x1f4e <I2C_enuStopCondition_Master>

00000a30 <.LVL70>:
     a30:	80 e0       	ldi	r24, 0x00	; 0
     a32:	90 e0       	ldi	r25, 0x00	; 0
     a34:	04 c0       	rjmp	.+8      	; 0xa3e <.L52>

00000a36 <.L62>:
     a36:	0e 94 a7 0f 	call	0x1f4e	; 0x1f4e <I2C_enuStopCondition_Master>

00000a3a <.LVL71>:
     a3a:	8c e0       	ldi	r24, 0x0C	; 12
     a3c:	90 e0       	ldi	r25, 0x00	; 0

00000a3e <.L52>:
     a3e:	0f 90       	pop	r0
     a40:	df 91       	pop	r29
     a42:	cf 91       	pop	r28
     a44:	1f 91       	pop	r17
     a46:	0f 91       	pop	r16
     a48:	ff 90       	pop	r15
     a4a:	ef 90       	pop	r14
     a4c:	df 90       	pop	r13

00000a4e <.LVL72>:
     a4e:	08 95       	ret

00000a50 <.L63>:
     a50:	0e 94 a7 0f 	call	0x1f4e	; 0x1f4e <I2C_enuStopCondition_Master>

00000a54 <.LVL74>:
     a54:	8c e0       	ldi	r24, 0x0C	; 12
     a56:	90 e0       	ldi	r25, 0x00	; 0
     a58:	f2 cf       	rjmp	.-28     	; 0xa3e <.L52>

00000a5a <.L64>:
     a5a:	0e 94 a7 0f 	call	0x1f4e	; 0x1f4e <I2C_enuStopCondition_Master>

00000a5e <.LVL75>:
     a5e:	8c e0       	ldi	r24, 0x0C	; 12
     a60:	90 e0       	ldi	r25, 0x00	; 0
     a62:	ed cf       	rjmp	.-38     	; 0xa3e <.L52>

00000a64 <.L65>:
     a64:	0e 94 a7 0f 	call	0x1f4e	; 0x1f4e <I2C_enuStopCondition_Master>

00000a68 <.LVL76>:
     a68:	8c e0       	ldi	r24, 0x0C	; 12
     a6a:	90 e0       	ldi	r25, 0x00	; 0
     a6c:	e8 cf       	rjmp	.-48     	; 0xa3e <.L52>

00000a6e <.L66>:
     a6e:	0e 94 a7 0f 	call	0x1f4e	; 0x1f4e <I2C_enuStopCondition_Master>

00000a72 <.LVL77>:
     a72:	8c e0       	ldi	r24, 0x0C	; 12
     a74:	90 e0       	ldi	r25, 0x00	; 0
     a76:	e3 cf       	rjmp	.-58     	; 0xa3e <.L52>

00000a78 <.L67>:
     a78:	0e 94 a7 0f 	call	0x1f4e	; 0x1f4e <I2C_enuStopCondition_Master>

00000a7c <.LVL78>:
     a7c:	8c e0       	ldi	r24, 0x0C	; 12
     a7e:	90 e0       	ldi	r25, 0x00	; 0
     a80:	de cf       	rjmp	.-68     	; 0xa3e <.L52>

00000a82 <.L60>:
     a82:	82 e0       	ldi	r24, 0x02	; 2
     a84:	90 e0       	ldi	r25, 0x00	; 0

00000a86 <.LVL80>:
     a86:	db cf       	rjmp	.-74     	; 0xa3e <.L52>

00000a88 <.L61>:
     a88:	82 e0       	ldi	r24, 0x02	; 2
     a8a:	90 e0       	ldi	r25, 0x00	; 0

00000a8c <.LVL82>:
     a8c:	d8 cf       	rjmp	.-80     	; 0xa3e <.L52>

00000a8e <EEPROM_enuReadPage>:
     a8e:	cf 92       	push	r12

00000a90 <.LCFI35>:
     a90:	df 92       	push	r13

00000a92 <.LCFI36>:
     a92:	ef 92       	push	r14

00000a94 <.LCFI37>:
     a94:	ff 92       	push	r15

00000a96 <.LCFI38>:
     a96:	0f 93       	push	r16

00000a98 <.LCFI39>:
     a98:	1f 93       	push	r17

00000a9a <.LCFI40>:
     a9a:	cf 93       	push	r28

00000a9c <.LCFI41>:
     a9c:	df 93       	push	r29

00000a9e <.LCFI42>:
     a9e:	0f 92       	push	r0

00000aa0 <.LCFI43>:
     aa0:	cd b7       	in	r28, 0x3d	; 61
     aa2:	de b7       	in	r29, 0x3e	; 62

00000aa4 <.LCFI44>:
     aa4:	c8 2e       	mov	r12, r24
     aa6:	d9 2e       	mov	r13, r25
     aa8:	16 2f       	mov	r17, r22
     aaa:	e4 2e       	mov	r14, r20
     aac:	f5 2e       	mov	r15, r21
     aae:	02 2f       	mov	r16, r18

00000ab0 <.Loc.229>:
     ab0:	c1 14       	cp	r12, r1
     ab2:	d1 04       	cpc	r13, r1
     ab4:	09 f4       	brne	.+2      	; 0xab8 <.Loc.231>

00000ab6 <L0^A>:
     ab6:	87 c0       	rjmp	.+270    	; 0xbc6 <.L78>

00000ab8 <.Loc.231>:
     ab8:	e1 14       	cp	r14, r1
     aba:	f1 04       	cpc	r15, r1
     abc:	09 f4       	brne	.+2      	; 0xac0 <.Loc.232>

00000abe <L0^A>:
     abe:	86 c0       	rjmp	.+268    	; 0xbcc <.L79>

00000ac0 <.Loc.232>:
     ac0:	ce 01       	movw	r24, r28

00000ac2 <.LVL84>:
     ac2:	01 96       	adiw	r24, 0x01	; 1
     ac4:	0e 94 92 0f 	call	0x1f24	; 0x1f24 <I2C_enuStartCondition_Master>

00000ac8 <.LVL85>:
     ac8:	89 81       	ldd	r24, Y+1	; 0x01

00000aca <.Loc.237>:
     aca:	88 30       	cpi	r24, 0x08	; 8
     acc:	41 f5       	brne	.+80     	; 0xb1e <.L81>

00000ace <.Loc.238>:
     ace:	ae 01       	movw	r20, r28
     ad0:	4f 5f       	subi	r20, 0xFF	; 255
     ad2:	5f 4f       	sbci	r21, 0xFF	; 255
     ad4:	60 e0       	ldi	r22, 0x00	; 0
     ad6:	f6 01       	movw	r30, r12
     ad8:	80 81       	ld	r24, Z
     ada:	0e 94 aa 0f 	call	0x1f54	; 0x1f54 <I2C_enuSendSLA_R_W_Master>

00000ade <.LVL86>:
     ade:	89 81       	ldd	r24, Y+1	; 0x01

00000ae0 <.Loc.241>:
     ae0:	88 31       	cpi	r24, 0x18	; 24
     ae2:	59 f5       	brne	.+86     	; 0xb3a <.L82>

00000ae4 <.Loc.242>:
     ae4:	be 01       	movw	r22, r28
     ae6:	6f 5f       	subi	r22, 0xFF	; 255
     ae8:	7f 4f       	sbci	r23, 0xFF	; 255
     aea:	81 2f       	mov	r24, r17
     aec:	0e 94 cb 0f 	call	0x1f96	; 0x1f96 <I2C_enuSendDataByte_Master>

00000af0 <.LVL87>:
     af0:	89 81       	ldd	r24, Y+1	; 0x01

00000af2 <.Loc.245>:
     af2:	88 32       	cpi	r24, 0x28	; 40
     af4:	39 f5       	brne	.+78     	; 0xb44 <.L83>

00000af6 <.Loc.246>:
     af6:	ce 01       	movw	r24, r28
     af8:	01 96       	adiw	r24, 0x01	; 1
     afa:	0e 94 a4 0f 	call	0x1f48	; 0x1f48 <I2C_enuRepeatedStartCondition_Master>

00000afe <.LVL88>:
     afe:	89 81       	ldd	r24, Y+1	; 0x01

00000b00 <.Loc.249>:
     b00:	80 31       	cpi	r24, 0x10	; 16
     b02:	29 f5       	brne	.+74     	; 0xb4e <.L84>

00000b04 <.Loc.250>:
     b04:	ae 01       	movw	r20, r28
     b06:	4f 5f       	subi	r20, 0xFF	; 255
     b08:	5f 4f       	sbci	r21, 0xFF	; 255
     b0a:	61 e0       	ldi	r22, 0x01	; 1
     b0c:	f6 01       	movw	r30, r12
     b0e:	80 81       	ld	r24, Z
     b10:	0e 94 aa 0f 	call	0x1f54	; 0x1f54 <I2C_enuSendSLA_R_W_Master>

00000b14 <.LVL89>:
     b14:	89 81       	ldd	r24, Y+1	; 0x01

00000b16 <.Loc.253>:
     b16:	80 34       	cpi	r24, 0x40	; 64
     b18:	f9 f4       	brne	.+62     	; 0xb58 <.L85>

00000b1a <.LBB7>:
     b1a:	10 e0       	ldi	r17, 0x00	; 0

00000b1c <.LVL90>:
     b1c:	2f c0       	rjmp	.+94     	; 0xb7c <.L74>

00000b1e <.L81>:
     b1e:	0e 94 a7 0f 	call	0x1f4e	; 0x1f4e <I2C_enuStopCondition_Master>

00000b22 <.LVL92>:
     b22:	8c e0       	ldi	r24, 0x0C	; 12
     b24:	90 e0       	ldi	r25, 0x00	; 0

00000b26 <.L68>:
     b26:	0f 90       	pop	r0
     b28:	df 91       	pop	r29
     b2a:	cf 91       	pop	r28
     b2c:	1f 91       	pop	r17
     b2e:	0f 91       	pop	r16

00000b30 <.LVL94>:
     b30:	ff 90       	pop	r15
     b32:	ef 90       	pop	r14
     b34:	df 90       	pop	r13
     b36:	cf 90       	pop	r12
     b38:	08 95       	ret

00000b3a <.L82>:
     b3a:	0e 94 a7 0f 	call	0x1f4e	; 0x1f4e <I2C_enuStopCondition_Master>

00000b3e <.LVL96>:
     b3e:	8c e0       	ldi	r24, 0x0C	; 12
     b40:	90 e0       	ldi	r25, 0x00	; 0
     b42:	f1 cf       	rjmp	.-30     	; 0xb26 <.L68>

00000b44 <.L83>:
     b44:	0e 94 a7 0f 	call	0x1f4e	; 0x1f4e <I2C_enuStopCondition_Master>

00000b48 <.LVL97>:
     b48:	8c e0       	ldi	r24, 0x0C	; 12
     b4a:	90 e0       	ldi	r25, 0x00	; 0
     b4c:	ec cf       	rjmp	.-40     	; 0xb26 <.L68>

00000b4e <.L84>:
     b4e:	0e 94 a7 0f 	call	0x1f4e	; 0x1f4e <I2C_enuStopCondition_Master>

00000b52 <.LVL98>:
     b52:	8c e0       	ldi	r24, 0x0C	; 12
     b54:	90 e0       	ldi	r25, 0x00	; 0
     b56:	e7 cf       	rjmp	.-50     	; 0xb26 <.L68>

00000b58 <.L85>:
     b58:	0e 94 a7 0f 	call	0x1f4e	; 0x1f4e <I2C_enuStopCondition_Master>

00000b5c <.LVL99>:
     b5c:	8c e0       	ldi	r24, 0x0C	; 12
     b5e:	90 e0       	ldi	r25, 0x00	; 0
     b60:	e2 cf       	rjmp	.-60     	; 0xb26 <.L68>

00000b62 <.L88>:
     b62:	ae 01       	movw	r20, r28
     b64:	4f 5f       	subi	r20, 0xFF	; 255
     b66:	5f 4f       	sbci	r21, 0xFF	; 255
     b68:	60 e0       	ldi	r22, 0x00	; 0
     b6a:	c7 01       	movw	r24, r14
     b6c:	81 0f       	add	r24, r17
     b6e:	91 1d       	adc	r25, r1
     b70:	0e 94 de 0f 	call	0x1fbc	; 0x1fbc <I2C_enuReceiveDataByte_Master>

00000b74 <.LVL101>:
     b74:	89 81       	ldd	r24, Y+1	; 0x01

00000b76 <.Loc.277>:
     b76:	88 35       	cpi	r24, 0x58	; 88
     b78:	e1 f4       	brne	.+56     	; 0xbb2 <.L86>

00000b7a <.L76>:
     b7a:	1f 5f       	subi	r17, 0xFF	; 255

00000b7c <.L74>:
     b7c:	10 17       	cp	r17, r16
     b7e:	f0 f4       	brcc	.+60     	; 0xbbc <.L87>

00000b80 <.Loc.280>:
     b80:	81 2f       	mov	r24, r17
     b82:	90 e0       	ldi	r25, 0x00	; 0

00000b84 <.Loc.282>:
     b84:	40 2f       	mov	r20, r16
     b86:	41 50       	subi	r20, 0x01	; 1
     b88:	55 0b       	sbc	r21, r21

00000b8a <.Loc.283>:
     b8a:	84 17       	cp	r24, r20
     b8c:	95 07       	cpc	r25, r21
     b8e:	49 f3       	breq	.-46     	; 0xb62 <.L88>

00000b90 <.Loc.284>:
     b90:	ae 01       	movw	r20, r28
     b92:	4f 5f       	subi	r20, 0xFF	; 255
     b94:	5f 4f       	sbci	r21, 0xFF	; 255
     b96:	61 e0       	ldi	r22, 0x01	; 1
     b98:	c7 01       	movw	r24, r14
     b9a:	81 0f       	add	r24, r17
     b9c:	91 1d       	adc	r25, r1
     b9e:	0e 94 de 0f 	call	0x1fbc	; 0x1fbc <I2C_enuReceiveDataByte_Master>

00000ba2 <.LVL103>:
     ba2:	89 81       	ldd	r24, Y+1	; 0x01

00000ba4 <.Loc.287>:
     ba4:	80 35       	cpi	r24, 0x50	; 80
     ba6:	49 f3       	breq	.-46     	; 0xb7a <.L76>

00000ba8 <.Loc.288>:
     ba8:	0e 94 a7 0f 	call	0x1f4e	; 0x1f4e <I2C_enuStopCondition_Master>

00000bac <.LVL104>:
     bac:	8c e0       	ldi	r24, 0x0C	; 12
     bae:	90 e0       	ldi	r25, 0x00	; 0
     bb0:	ba cf       	rjmp	.-140    	; 0xb26 <.L68>

00000bb2 <.L86>:
     bb2:	0e 94 a7 0f 	call	0x1f4e	; 0x1f4e <I2C_enuStopCondition_Master>

00000bb6 <.LVL105>:
     bb6:	8c e0       	ldi	r24, 0x0C	; 12
     bb8:	90 e0       	ldi	r25, 0x00	; 0
     bba:	b5 cf       	rjmp	.-150    	; 0xb26 <.L68>

00000bbc <.L87>:
     bbc:	0e 94 a7 0f 	call	0x1f4e	; 0x1f4e <I2C_enuStopCondition_Master>

00000bc0 <.LVL106>:
     bc0:	80 e0       	ldi	r24, 0x00	; 0
     bc2:	90 e0       	ldi	r25, 0x00	; 0
     bc4:	b0 cf       	rjmp	.-160    	; 0xb26 <.L68>

00000bc6 <.L78>:
     bc6:	82 e0       	ldi	r24, 0x02	; 2
     bc8:	90 e0       	ldi	r25, 0x00	; 0

00000bca <.LVL108>:
     bca:	ad cf       	rjmp	.-166    	; 0xb26 <.L68>

00000bcc <.L79>:
     bcc:	82 e0       	ldi	r24, 0x02	; 2
     bce:	90 e0       	ldi	r25, 0x00	; 0

00000bd0 <.LVL110>:
     bd0:	aa cf       	rjmp	.-172    	; 0xb26 <.L68>

00000bd2 <LCD_enuPushBits>:
     bd2:	1f 93       	push	r17

00000bd4 <.LCFI0>:
     bd4:	cf 93       	push	r28

00000bd6 <.LCFI1>:
     bd6:	df 93       	push	r29

00000bd8 <.LCFI2>:
     bd8:	c8 2f       	mov	r28, r24
     bda:	d9 2f       	mov	r29, r25
     bdc:	16 2f       	mov	r17, r22

00000bde <.LVL1>:
     bde:	46 2f       	mov	r20, r22
     be0:	44 1f       	adc	r20, r20
     be2:	44 27       	eor	r20, r20
     be4:	44 1f       	adc	r20, r20
     be6:	6a 8d       	ldd	r22, Y+26	; 0x1a

00000be8 <.LVL2>:
     be8:	89 8d       	ldd	r24, Y+25	; 0x19

00000bea <.LVL3>:
     bea:	0e 94 94 0d 	call	0x1b28	; 0x1b28 <DIO_enuSetPinValue>

00000bee <.LVL4>:
     bee:	28 2f       	mov	r18, r24
     bf0:	39 2f       	mov	r19, r25

00000bf2 <.LVL5>:
     bf2:	21 15       	cp	r18, r1
     bf4:	31 05       	cpc	r19, r1
     bf6:	29 f0       	breq	.+10     	; 0xc02 <.L3>

00000bf8 <.L1>:
     bf8:	c9 01       	movw	r24, r18
     bfa:	df 91       	pop	r29
     bfc:	cf 91       	pop	r28
     bfe:	1f 91       	pop	r17

00000c00 <.LVL6>:
     c00:	08 95       	ret

00000c02 <.L3>:
     c02:	16 fb       	bst	r17, 6
     c04:	44 27       	eor	r20, r20
     c06:	40 f9       	bld	r20, 0
     c08:	68 8d       	ldd	r22, Y+24	; 0x18
     c0a:	8f 89       	ldd	r24, Y+23	; 0x17
     c0c:	0e 94 94 0d 	call	0x1b28	; 0x1b28 <DIO_enuSetPinValue>

00000c10 <.LVL8>:
     c10:	28 2f       	mov	r18, r24
     c12:	39 2f       	mov	r19, r25

00000c14 <.LVL9>:
     c14:	21 15       	cp	r18, r1
     c16:	31 05       	cpc	r19, r1
     c18:	79 f7       	brne	.-34     	; 0xbf8 <.L1>

00000c1a <.Loc.16>:
     c1a:	15 fb       	bst	r17, 5
     c1c:	44 27       	eor	r20, r20
     c1e:	40 f9       	bld	r20, 0
     c20:	6e 89       	ldd	r22, Y+22	; 0x16
     c22:	8d 89       	ldd	r24, Y+21	; 0x15
     c24:	0e 94 94 0d 	call	0x1b28	; 0x1b28 <DIO_enuSetPinValue>

00000c28 <.LVL10>:
     c28:	28 2f       	mov	r18, r24
     c2a:	39 2f       	mov	r19, r25

00000c2c <.LVL11>:
     c2c:	21 15       	cp	r18, r1
     c2e:	31 05       	cpc	r19, r1
     c30:	19 f7       	brne	.-58     	; 0xbf8 <.L1>

00000c32 <.Loc.21>:
     c32:	14 fb       	bst	r17, 4
     c34:	44 27       	eor	r20, r20
     c36:	40 f9       	bld	r20, 0
     c38:	6c 89       	ldd	r22, Y+20	; 0x14
     c3a:	8b 89       	ldd	r24, Y+19	; 0x13
     c3c:	0e 94 94 0d 	call	0x1b28	; 0x1b28 <DIO_enuSetPinValue>

00000c40 <.LVL12>:
     c40:	28 2f       	mov	r18, r24
     c42:	39 2f       	mov	r19, r25

00000c44 <.LVL13>:
     c44:	21 15       	cp	r18, r1
     c46:	31 05       	cpc	r19, r1
     c48:	b9 f6       	brne	.-82     	; 0xbf8 <.L1>

00000c4a <.Loc.26>:
     c4a:	88 81       	ld	r24, Y

00000c4c <.Loc.28>:
     c4c:	88 23       	and	r24, r24
     c4e:	a1 f2       	breq	.-88     	; 0xbf8 <.L1>

00000c50 <.Loc.29>:
     c50:	13 fb       	bst	r17, 3
     c52:	44 27       	eor	r20, r20
     c54:	40 f9       	bld	r20, 0
     c56:	6a 89       	ldd	r22, Y+18	; 0x12
     c58:	89 89       	ldd	r24, Y+17	; 0x11
     c5a:	0e 94 94 0d 	call	0x1b28	; 0x1b28 <DIO_enuSetPinValue>

00000c5e <.LVL14>:
     c5e:	28 2f       	mov	r18, r24
     c60:	39 2f       	mov	r19, r25

00000c62 <.LVL15>:
     c62:	21 15       	cp	r18, r1
     c64:	31 05       	cpc	r19, r1
     c66:	41 f6       	brne	.-112    	; 0xbf8 <.L1>

00000c68 <.Loc.34>:
     c68:	12 fb       	bst	r17, 2
     c6a:	44 27       	eor	r20, r20
     c6c:	40 f9       	bld	r20, 0
     c6e:	68 89       	ldd	r22, Y+16	; 0x10
     c70:	8f 85       	ldd	r24, Y+15	; 0x0f
     c72:	0e 94 94 0d 	call	0x1b28	; 0x1b28 <DIO_enuSetPinValue>

00000c76 <.LVL16>:
     c76:	28 2f       	mov	r18, r24
     c78:	39 2f       	mov	r19, r25

00000c7a <.LVL17>:
     c7a:	21 15       	cp	r18, r1
     c7c:	31 05       	cpc	r19, r1
     c7e:	09 f0       	breq	.+2      	; 0xc82 <.Loc.39>

00000c80 <L0^A>:
     c80:	bb cf       	rjmp	.-138    	; 0xbf8 <.L1>

00000c82 <.Loc.39>:
     c82:	11 fb       	bst	r17, 1
     c84:	44 27       	eor	r20, r20
     c86:	40 f9       	bld	r20, 0
     c88:	6e 85       	ldd	r22, Y+14	; 0x0e
     c8a:	8d 85       	ldd	r24, Y+13	; 0x0d
     c8c:	0e 94 94 0d 	call	0x1b28	; 0x1b28 <DIO_enuSetPinValue>

00000c90 <.LVL18>:
     c90:	28 2f       	mov	r18, r24
     c92:	39 2f       	mov	r19, r25

00000c94 <.LVL19>:
     c94:	21 15       	cp	r18, r1
     c96:	31 05       	cpc	r19, r1
     c98:	09 f0       	breq	.+2      	; 0xc9c <.Loc.44>

00000c9a <L0^A>:
     c9a:	ae cf       	rjmp	.-164    	; 0xbf8 <.L1>

00000c9c <.Loc.44>:
     c9c:	41 2f       	mov	r20, r17
     c9e:	41 70       	andi	r20, 0x01	; 1
     ca0:	6c 85       	ldd	r22, Y+12	; 0x0c
     ca2:	8b 85       	ldd	r24, Y+11	; 0x0b
     ca4:	0e 94 94 0d 	call	0x1b28	; 0x1b28 <DIO_enuSetPinValue>

00000ca8 <.LVL20>:
     ca8:	28 2f       	mov	r18, r24
     caa:	39 2f       	mov	r19, r25

00000cac <.LVL21>:
     cac:	a5 cf       	rjmp	.-182    	; 0xbf8 <.L1>

00000cae <LCD_enuWriteCommand>:
     cae:	1f 93       	push	r17

00000cb0 <.LCFI3>:
     cb0:	cf 93       	push	r28

00000cb2 <.LCFI4>:
     cb2:	df 93       	push	r29

00000cb4 <.LCFI5>:
     cb4:	c8 2f       	mov	r28, r24
     cb6:	d9 2f       	mov	r29, r25
     cb8:	16 2f       	mov	r17, r22

00000cba <.LVL23>:
     cba:	40 e0       	ldi	r20, 0x00	; 0
     cbc:	6a 85       	ldd	r22, Y+10	; 0x0a

00000cbe <.LVL24>:
     cbe:	89 85       	ldd	r24, Y+9	; 0x09

00000cc0 <.LVL25>:
     cc0:	0e 94 94 0d 	call	0x1b28	; 0x1b28 <DIO_enuSetPinValue>

00000cc4 <.LVL26>:
     cc4:	28 2f       	mov	r18, r24
     cc6:	39 2f       	mov	r19, r25

00000cc8 <.LVL27>:
     cc8:	21 15       	cp	r18, r1
     cca:	31 05       	cpc	r19, r1
     ccc:	29 f0       	breq	.+10     	; 0xcd8 <.L6>

00000cce <.L4>:
     cce:	c9 01       	movw	r24, r18
     cd0:	df 91       	pop	r29
     cd2:	cf 91       	pop	r28
     cd4:	1f 91       	pop	r17

00000cd6 <.LVL29>:
     cd6:	08 95       	ret

00000cd8 <.L6>:
     cd8:	8f ec       	ldi	r24, 0xCF	; 207
     cda:	97 e0       	ldi	r25, 0x07	; 7

00000cdc <.L1^B1>:
     cdc:	01 97       	sbiw	r24, 0x01	; 1
     cde:	f1 f7       	brne	.-4      	; 0xcdc <.L1^B1>
     ce0:	00 c0       	rjmp	.+0      	; 0xce2 <L0^A>

00000ce2 <L0^A>:
	...

00000ce4 <.LBE66>:
     ce4:	40 e0       	ldi	r20, 0x00	; 0
     ce6:	6e 81       	ldd	r22, Y+6	; 0x06
     ce8:	8d 81       	ldd	r24, Y+5	; 0x05
     cea:	0e 94 94 0d 	call	0x1b28	; 0x1b28 <DIO_enuSetPinValue>

00000cee <.LVL32>:
     cee:	28 2f       	mov	r18, r24
     cf0:	39 2f       	mov	r19, r25

00000cf2 <.LVL33>:
     cf2:	21 15       	cp	r18, r1
     cf4:	31 05       	cpc	r19, r1
     cf6:	59 f7       	brne	.-42     	; 0xcce <.L4>

00000cf8 <.Loc.74>:
     cf8:	40 e0       	ldi	r20, 0x00	; 0
     cfa:	68 85       	ldd	r22, Y+8	; 0x08
     cfc:	8f 81       	ldd	r24, Y+7	; 0x07
     cfe:	0e 94 94 0d 	call	0x1b28	; 0x1b28 <DIO_enuSetPinValue>

00000d02 <.LVL34>:
     d02:	28 2f       	mov	r18, r24
     d04:	39 2f       	mov	r19, r25

00000d06 <.LVL35>:
     d06:	21 15       	cp	r18, r1
     d08:	31 05       	cpc	r19, r1
     d0a:	09 f7       	brne	.-62     	; 0xcce <.L4>

00000d0c <.Loc.79>:
     d0c:	61 2f       	mov	r22, r17
     d0e:	ce 01       	movw	r24, r28
     d10:	0e 94 e9 05 	call	0xbd2	; 0xbd2 <LCD_enuPushBits>

00000d14 <.LVL36>:
     d14:	28 2f       	mov	r18, r24
     d16:	39 2f       	mov	r19, r25

00000d18 <.LVL37>:
     d18:	21 15       	cp	r18, r1
     d1a:	31 05       	cpc	r19, r1
     d1c:	c1 f6       	brne	.-80     	; 0xcce <.L4>

00000d1e <.Loc.84>:
     d1e:	41 e0       	ldi	r20, 0x01	; 1
     d20:	6a 85       	ldd	r22, Y+10	; 0x0a
     d22:	89 85       	ldd	r24, Y+9	; 0x09
     d24:	0e 94 94 0d 	call	0x1b28	; 0x1b28 <DIO_enuSetPinValue>

00000d28 <.LVL38>:
     d28:	28 2f       	mov	r18, r24
     d2a:	39 2f       	mov	r19, r25

00000d2c <.LVL39>:
     d2c:	21 15       	cp	r18, r1
     d2e:	31 05       	cpc	r19, r1
     d30:	71 f6       	brne	.-100    	; 0xcce <.L4>

00000d32 <.LBB68>:
     d32:	8f ec       	ldi	r24, 0xCF	; 207
     d34:	97 e0       	ldi	r25, 0x07	; 7

00000d36 <.L1^B2>:
     d36:	01 97       	sbiw	r24, 0x01	; 1
     d38:	f1 f7       	brne	.-4      	; 0xd36 <.L1^B2>
     d3a:	00 c0       	rjmp	.+0      	; 0xd3c <L0^A>

00000d3c <L0^A>:
	...

00000d3e <.LBE68>:
     d3e:	40 e0       	ldi	r20, 0x00	; 0
     d40:	6a 85       	ldd	r22, Y+10	; 0x0a
     d42:	89 85       	ldd	r24, Y+9	; 0x09
     d44:	0e 94 94 0d 	call	0x1b28	; 0x1b28 <DIO_enuSetPinValue>

00000d48 <.LVL42>:
     d48:	28 2f       	mov	r18, r24
     d4a:	39 2f       	mov	r19, r25

00000d4c <.LVL43>:
     d4c:	88 81       	ld	r24, Y

00000d4e <.Loc.103>:
     d4e:	81 11       	cpse	r24, r1
     d50:	be cf       	rjmp	.-132    	; 0xcce <.L4>

00000d52 <.Loc.104>:
     d52:	61 2f       	mov	r22, r17
     d54:	62 95       	swap	r22
     d56:	60 7f       	andi	r22, 0xF0	; 240
     d58:	ce 01       	movw	r24, r28
     d5a:	0e 94 e9 05 	call	0xbd2	; 0xbd2 <LCD_enuPushBits>

00000d5e <.LVL44>:
     d5e:	28 2f       	mov	r18, r24
     d60:	39 2f       	mov	r19, r25

00000d62 <.LVL45>:
     d62:	21 15       	cp	r18, r1
     d64:	31 05       	cpc	r19, r1
     d66:	09 f0       	breq	.+2      	; 0xd6a <.LBB70>

00000d68 <L0^A>:
     d68:	b2 cf       	rjmp	.-156    	; 0xcce <.L4>

00000d6a <.LBB70>:
     d6a:	8f ec       	ldi	r24, 0xCF	; 207
     d6c:	97 e0       	ldi	r25, 0x07	; 7

00000d6e <.L1^B3>:
     d6e:	01 97       	sbiw	r24, 0x01	; 1
     d70:	f1 f7       	brne	.-4      	; 0xd6e <.L1^B3>
     d72:	00 c0       	rjmp	.+0      	; 0xd74 <L0^A>

00000d74 <L0^A>:
	...

00000d76 <.LBE70>:
     d76:	41 e0       	ldi	r20, 0x01	; 1
     d78:	6a 85       	ldd	r22, Y+10	; 0x0a
     d7a:	89 85       	ldd	r24, Y+9	; 0x09
     d7c:	0e 94 94 0d 	call	0x1b28	; 0x1b28 <DIO_enuSetPinValue>

00000d80 <.LVL48>:
     d80:	28 2f       	mov	r18, r24
     d82:	39 2f       	mov	r19, r25

00000d84 <.LVL49>:
     d84:	21 15       	cp	r18, r1
     d86:	31 05       	cpc	r19, r1
     d88:	09 f0       	breq	.+2      	; 0xd8c <.LBB72>

00000d8a <L0^A>:
     d8a:	a1 cf       	rjmp	.-190    	; 0xcce <.L4>

00000d8c <.LBB72>:
     d8c:	8f ec       	ldi	r24, 0xCF	; 207
     d8e:	97 e0       	ldi	r25, 0x07	; 7

00000d90 <.L1^B4>:
     d90:	01 97       	sbiw	r24, 0x01	; 1
     d92:	f1 f7       	brne	.-4      	; 0xd90 <.L1^B4>
     d94:	00 c0       	rjmp	.+0      	; 0xd96 <L0^A>

00000d96 <L0^A>:
	...

00000d98 <.LBE72>:
     d98:	40 e0       	ldi	r20, 0x00	; 0
     d9a:	6a 85       	ldd	r22, Y+10	; 0x0a
     d9c:	89 85       	ldd	r24, Y+9	; 0x09
     d9e:	0e 94 94 0d 	call	0x1b28	; 0x1b28 <DIO_enuSetPinValue>

00000da2 <.LVL52>:
     da2:	28 2f       	mov	r18, r24
     da4:	39 2f       	mov	r19, r25

00000da6 <.Loc.135>:
     da6:	93 cf       	rjmp	.-218    	; 0xcce <.L4>

00000da8 <LCD_DisplayOnOff>:
     da8:	62 30       	cpi	r22, 0x02	; 2
     daa:	a0 f4       	brcc	.+40     	; 0xdd4 <.L9>

00000dac <.Loc.139>:
     dac:	42 30       	cpi	r20, 0x02	; 2
     dae:	a8 f4       	brcc	.+42     	; 0xdda <.L10>

00000db0 <.Loc.140>:
     db0:	22 30       	cpi	r18, 0x02	; 2
     db2:	b0 f4       	brcc	.+44     	; 0xde0 <.L11>

00000db4 <.Loc.141>:
     db4:	70 e0       	ldi	r23, 0x00	; 0
     db6:	66 0f       	add	r22, r22
     db8:	77 1f       	adc	r23, r23
     dba:	66 0f       	add	r22, r22
     dbc:	77 1f       	adc	r23, r23

00000dbe <.LVL55>:
     dbe:	36 2f       	mov	r19, r22
     dc0:	38 60       	ori	r19, 0x08	; 8

00000dc2 <.Loc.144>:
     dc2:	64 2f       	mov	r22, r20
     dc4:	70 e0       	ldi	r23, 0x00	; 0
     dc6:	66 0f       	add	r22, r22
     dc8:	77 1f       	adc	r23, r23

00000dca <.Loc.145>:
     dca:	63 2b       	or	r22, r19

00000dcc <.Loc.146>:
     dcc:	62 2b       	or	r22, r18
     dce:	0e 94 57 06 	call	0xcae	; 0xcae <LCD_enuWriteCommand>

00000dd2 <.LVL56>:
     dd2:	08 95       	ret

00000dd4 <.L9>:
     dd4:	84 e0       	ldi	r24, 0x04	; 4

00000dd6 <.LVL58>:
     dd6:	90 e0       	ldi	r25, 0x00	; 0
     dd8:	08 95       	ret

00000dda <.L10>:
     dda:	84 e0       	ldi	r24, 0x04	; 4

00000ddc <.LVL60>:
     ddc:	90 e0       	ldi	r25, 0x00	; 0
     dde:	08 95       	ret

00000de0 <.L11>:
     de0:	84 e0       	ldi	r24, 0x04	; 4

00000de2 <.LVL62>:
     de2:	90 e0       	ldi	r25, 0x00	; 0

00000de4 <.Loc.154>:
     de4:	08 95       	ret

00000de6 <LCD_DisplayClear>:
     de6:	61 e0       	ldi	r22, 0x01	; 1
     de8:	0e 94 57 06 	call	0xcae	; 0xcae <LCD_enuWriteCommand>

00000dec <.LVL64>:
     dec:	08 95       	ret

00000dee <LCD_EntryModeSet>:
     dee:	62 30       	cpi	r22, 0x02	; 2
     df0:	50 f4       	brcc	.+20     	; 0xe06 <.L15>

00000df2 <.Loc.162>:
     df2:	42 30       	cpi	r20, 0x02	; 2
     df4:	58 f4       	brcc	.+22     	; 0xe0c <.L16>

00000df6 <.Loc.163>:
     df6:	70 e0       	ldi	r23, 0x00	; 0
     df8:	66 0f       	add	r22, r22
     dfa:	77 1f       	adc	r23, r23

00000dfc <.LVL66>:
     dfc:	64 2b       	or	r22, r20

00000dfe <.Loc.166>:
     dfe:	64 60       	ori	r22, 0x04	; 4
     e00:	0e 94 57 06 	call	0xcae	; 0xcae <LCD_enuWriteCommand>

00000e04 <.LVL67>:
     e04:	08 95       	ret

00000e06 <.L15>:
     e06:	84 e0       	ldi	r24, 0x04	; 4

00000e08 <.LVL69>:
     e08:	90 e0       	ldi	r25, 0x00	; 0
     e0a:	08 95       	ret

00000e0c <.L16>:
     e0c:	84 e0       	ldi	r24, 0x04	; 4

00000e0e <.LVL71>:
     e0e:	90 e0       	ldi	r25, 0x00	; 0

00000e10 <.Loc.172>:
     e10:	08 95       	ret

00000e12 <LCD_SetDDRAMAddress>:
     e12:	66 23       	and	r22, r22
     e14:	24 f0       	brlt	.+8      	; 0xe1e <.L19>

00000e16 <.Loc.176>:
     e16:	60 68       	ori	r22, 0x80	; 128

00000e18 <.LVL73>:
     e18:	0e 94 57 06 	call	0xcae	; 0xcae <LCD_enuWriteCommand>

00000e1c <.LVL74>:
     e1c:	08 95       	ret

00000e1e <.L19>:
     e1e:	84 e0       	ldi	r24, 0x04	; 4

00000e20 <.LVL76>:
     e20:	90 e0       	ldi	r25, 0x00	; 0

00000e22 <.Loc.182>:
     e22:	08 95       	ret

00000e24 <LCD_enuFunctionSet>:
     e24:	1f 93       	push	r17

00000e26 <.LCFI6>:
     e26:	cf 93       	push	r28

00000e28 <.LCFI7>:
     e28:	df 93       	push	r29

00000e2a <.LCFI8>:
     e2a:	c8 2f       	mov	r28, r24
     e2c:	d9 2f       	mov	r29, r25

00000e2e <.Loc.185>:
     e2e:	62 30       	cpi	r22, 0x02	; 2
     e30:	08 f0       	brcs	.+2      	; 0xe34 <.Loc.187>

00000e32 <L0^A>:
     e32:	51 c0       	rjmp	.+162    	; 0xed6 <.L23>

00000e34 <.Loc.187>:
     e34:	42 30       	cpi	r20, 0x02	; 2
     e36:	08 f0       	brcs	.+2      	; 0xe3a <.Loc.188>

00000e38 <L0^A>:
     e38:	54 c0       	rjmp	.+168    	; 0xee2 <.L24>

00000e3a <.Loc.188>:
     e3a:	22 30       	cpi	r18, 0x02	; 2
     e3c:	08 f0       	brcs	.+2      	; 0xe40 <.Loc.189>

00000e3e <L0^A>:
     e3e:	54 c0       	rjmp	.+168    	; 0xee8 <.L25>

00000e40 <.Loc.189>:
     e40:	80 e1       	ldi	r24, 0x10	; 16

00000e42 <.LVL78>:
     e42:	68 9f       	mul	r22, r24
     e44:	b0 01       	movw	r22, r0
     e46:	11 24       	eor	r1, r1

00000e48 <.LVL79>:
     e48:	60 62       	ori	r22, 0x20	; 32

00000e4a <.Loc.193>:
     e4a:	50 e0       	ldi	r21, 0x00	; 0
     e4c:	44 0f       	add	r20, r20
     e4e:	55 1f       	adc	r21, r21
     e50:	44 0f       	add	r20, r20
     e52:	55 1f       	adc	r21, r21
     e54:	44 0f       	add	r20, r20
     e56:	55 1f       	adc	r21, r21

00000e58 <.LVL80>:
     e58:	46 2b       	or	r20, r22

00000e5a <.Loc.195>:
     e5a:	30 e0       	ldi	r19, 0x00	; 0
     e5c:	22 0f       	add	r18, r18
     e5e:	33 1f       	adc	r19, r19
     e60:	22 0f       	add	r18, r18
     e62:	33 1f       	adc	r19, r19

00000e64 <.LVL81>:
     e64:	14 2f       	mov	r17, r20
     e66:	12 2b       	or	r17, r18

00000e68 <.LVL82>:
     e68:	88 81       	ld	r24, Y

00000e6a <.Loc.199>:
     e6a:	81 11       	cpse	r24, r1
     e6c:	2f c0       	rjmp	.+94     	; 0xecc <.L22>

00000e6e <.LBB74>:
     e6e:	40 e0       	ldi	r20, 0x00	; 0
     e70:	6a 85       	ldd	r22, Y+10	; 0x0a
     e72:	89 85       	ldd	r24, Y+9	; 0x09
     e74:	0e 94 94 0d 	call	0x1b28	; 0x1b28 <DIO_enuSetPinValue>

00000e78 <.LVL83>:
     e78:	00 97       	sbiw	r24, 0x00	; 0
     e7a:	79 f5       	brne	.+94     	; 0xeda <.L20>

00000e7c <.Loc.204>:
     e7c:	40 e0       	ldi	r20, 0x00	; 0
     e7e:	6e 81       	ldd	r22, Y+6	; 0x06
     e80:	8d 81       	ldd	r24, Y+5	; 0x05

00000e82 <.LVL84>:
     e82:	0e 94 94 0d 	call	0x1b28	; 0x1b28 <DIO_enuSetPinValue>

00000e86 <.LVL85>:
     e86:	00 97       	sbiw	r24, 0x00	; 0
     e88:	41 f5       	brne	.+80     	; 0xeda <.L20>

00000e8a <.Loc.209>:
     e8a:	40 e0       	ldi	r20, 0x00	; 0
     e8c:	68 85       	ldd	r22, Y+8	; 0x08
     e8e:	8f 81       	ldd	r24, Y+7	; 0x07

00000e90 <.LVL86>:
     e90:	0e 94 94 0d 	call	0x1b28	; 0x1b28 <DIO_enuSetPinValue>

00000e94 <.LVL87>:
     e94:	00 97       	sbiw	r24, 0x00	; 0
     e96:	09 f5       	brne	.+66     	; 0xeda <.L20>

00000e98 <.Loc.214>:
     e98:	61 2f       	mov	r22, r17
     e9a:	ce 01       	movw	r24, r28

00000e9c <.LVL88>:
     e9c:	0e 94 e9 05 	call	0xbd2	; 0xbd2 <LCD_enuPushBits>

00000ea0 <.LVL89>:
     ea0:	00 97       	sbiw	r24, 0x00	; 0
     ea2:	d9 f4       	brne	.+54     	; 0xeda <.L20>

00000ea4 <.Loc.219>:
     ea4:	41 e0       	ldi	r20, 0x01	; 1
     ea6:	6a 85       	ldd	r22, Y+10	; 0x0a
     ea8:	89 85       	ldd	r24, Y+9	; 0x09

00000eaa <.LVL90>:
     eaa:	0e 94 94 0d 	call	0x1b28	; 0x1b28 <DIO_enuSetPinValue>

00000eae <.LVL91>:
     eae:	00 97       	sbiw	r24, 0x00	; 0
     eb0:	a1 f4       	brne	.+40     	; 0xeda <.L20>

00000eb2 <.LBB75>:
     eb2:	8f ec       	ldi	r24, 0xCF	; 207
     eb4:	97 e0       	ldi	r25, 0x07	; 7

00000eb6 <.L1^B5>:
     eb6:	01 97       	sbiw	r24, 0x01	; 1
     eb8:	f1 f7       	brne	.-4      	; 0xeb6 <.L1^B5>

00000eba <.LVL93>:
     eba:	00 c0       	rjmp	.+0      	; 0xebc <L0^A>

00000ebc <L0^A>:
	...

00000ebe <.LBE75>:
     ebe:	40 e0       	ldi	r20, 0x00	; 0
     ec0:	6a 85       	ldd	r22, Y+10	; 0x0a
     ec2:	89 85       	ldd	r24, Y+9	; 0x09
     ec4:	0e 94 94 0d 	call	0x1b28	; 0x1b28 <DIO_enuSetPinValue>

00000ec8 <.LVL95>:
     ec8:	00 97       	sbiw	r24, 0x00	; 0
     eca:	39 f4       	brne	.+14     	; 0xeda <.L20>

00000ecc <.L22>:
     ecc:	61 2f       	mov	r22, r17
     ece:	ce 01       	movw	r24, r28
     ed0:	0e 94 57 06 	call	0xcae	; 0xcae <LCD_enuWriteCommand>

00000ed4 <.LVL97>:
     ed4:	02 c0       	rjmp	.+4      	; 0xeda <.L20>

00000ed6 <.L23>:
     ed6:	84 e0       	ldi	r24, 0x04	; 4
     ed8:	90 e0       	ldi	r25, 0x00	; 0

00000eda <.L20>:
     eda:	df 91       	pop	r29
     edc:	cf 91       	pop	r28
     ede:	1f 91       	pop	r17
     ee0:	08 95       	ret

00000ee2 <.L24>:
     ee2:	84 e0       	ldi	r24, 0x04	; 4
     ee4:	90 e0       	ldi	r25, 0x00	; 0

00000ee6 <.LVL101>:
     ee6:	f9 cf       	rjmp	.-14     	; 0xeda <.L20>

00000ee8 <.L25>:
     ee8:	84 e0       	ldi	r24, 0x04	; 4
     eea:	90 e0       	ldi	r25, 0x00	; 0

00000eec <.LVL103>:
     eec:	f6 cf       	rjmp	.-20     	; 0xeda <.L20>

00000eee <LCD_enuWriteData>:
     eee:	1f 93       	push	r17

00000ef0 <.LCFI9>:
     ef0:	cf 93       	push	r28

00000ef2 <.LCFI10>:
     ef2:	df 93       	push	r29

00000ef4 <.LCFI11>:
     ef4:	c8 2f       	mov	r28, r24
     ef6:	d9 2f       	mov	r29, r25
     ef8:	16 2f       	mov	r17, r22

00000efa <.LVL105>:
     efa:	40 e0       	ldi	r20, 0x00	; 0
     efc:	6a 85       	ldd	r22, Y+10	; 0x0a

00000efe <.LVL106>:
     efe:	89 85       	ldd	r24, Y+9	; 0x09

00000f00 <.LVL107>:
     f00:	0e 94 94 0d 	call	0x1b28	; 0x1b28 <DIO_enuSetPinValue>

00000f04 <.LVL108>:
     f04:	28 2f       	mov	r18, r24
     f06:	39 2f       	mov	r19, r25

00000f08 <.LVL109>:
     f08:	21 15       	cp	r18, r1
     f0a:	31 05       	cpc	r19, r1
     f0c:	29 f0       	breq	.+10     	; 0xf18 <.L28>

00000f0e <.L26>:
     f0e:	c9 01       	movw	r24, r18
     f10:	df 91       	pop	r29
     f12:	cf 91       	pop	r28
     f14:	1f 91       	pop	r17

00000f16 <.LVL111>:
     f16:	08 95       	ret

00000f18 <.L28>:
     f18:	8f ec       	ldi	r24, 0xCF	; 207
     f1a:	97 e0       	ldi	r25, 0x07	; 7

00000f1c <.L1^B6>:
     f1c:	01 97       	sbiw	r24, 0x01	; 1
     f1e:	f1 f7       	brne	.-4      	; 0xf1c <.L1^B6>
     f20:	00 c0       	rjmp	.+0      	; 0xf22 <L0^A>

00000f22 <L0^A>:
	...

00000f24 <.LBE77>:
     f24:	41 e0       	ldi	r20, 0x01	; 1
     f26:	6e 81       	ldd	r22, Y+6	; 0x06
     f28:	8d 81       	ldd	r24, Y+5	; 0x05
     f2a:	0e 94 94 0d 	call	0x1b28	; 0x1b28 <DIO_enuSetPinValue>

00000f2e <.LVL114>:
     f2e:	28 2f       	mov	r18, r24
     f30:	39 2f       	mov	r19, r25

00000f32 <.LVL115>:
     f32:	21 15       	cp	r18, r1
     f34:	31 05       	cpc	r19, r1
     f36:	59 f7       	brne	.-42     	; 0xf0e <.L26>

00000f38 <.Loc.272>:
     f38:	40 e0       	ldi	r20, 0x00	; 0
     f3a:	68 85       	ldd	r22, Y+8	; 0x08
     f3c:	8f 81       	ldd	r24, Y+7	; 0x07
     f3e:	0e 94 94 0d 	call	0x1b28	; 0x1b28 <DIO_enuSetPinValue>

00000f42 <.LVL116>:
     f42:	28 2f       	mov	r18, r24
     f44:	39 2f       	mov	r19, r25

00000f46 <.LVL117>:
     f46:	21 15       	cp	r18, r1
     f48:	31 05       	cpc	r19, r1
     f4a:	09 f7       	brne	.-62     	; 0xf0e <.L26>

00000f4c <.Loc.277>:
     f4c:	61 2f       	mov	r22, r17
     f4e:	ce 01       	movw	r24, r28
     f50:	0e 94 e9 05 	call	0xbd2	; 0xbd2 <LCD_enuPushBits>

00000f54 <.LVL118>:
     f54:	28 2f       	mov	r18, r24
     f56:	39 2f       	mov	r19, r25

00000f58 <.LVL119>:
     f58:	21 15       	cp	r18, r1
     f5a:	31 05       	cpc	r19, r1
     f5c:	c1 f6       	brne	.-80     	; 0xf0e <.L26>

00000f5e <.Loc.282>:
     f5e:	41 e0       	ldi	r20, 0x01	; 1
     f60:	6a 85       	ldd	r22, Y+10	; 0x0a
     f62:	89 85       	ldd	r24, Y+9	; 0x09
     f64:	0e 94 94 0d 	call	0x1b28	; 0x1b28 <DIO_enuSetPinValue>

00000f68 <.LVL120>:
     f68:	28 2f       	mov	r18, r24
     f6a:	39 2f       	mov	r19, r25

00000f6c <.LVL121>:
     f6c:	21 15       	cp	r18, r1
     f6e:	31 05       	cpc	r19, r1
     f70:	71 f6       	brne	.-100    	; 0xf0e <.L26>

00000f72 <.LBB79>:
     f72:	8f ec       	ldi	r24, 0xCF	; 207
     f74:	97 e0       	ldi	r25, 0x07	; 7

00000f76 <.L1^B7>:
     f76:	01 97       	sbiw	r24, 0x01	; 1
     f78:	f1 f7       	brne	.-4      	; 0xf76 <.L1^B7>
     f7a:	00 c0       	rjmp	.+0      	; 0xf7c <L0^A>

00000f7c <L0^A>:
	...

00000f7e <.LBE79>:
     f7e:	40 e0       	ldi	r20, 0x00	; 0
     f80:	6a 85       	ldd	r22, Y+10	; 0x0a
     f82:	89 85       	ldd	r24, Y+9	; 0x09
     f84:	0e 94 94 0d 	call	0x1b28	; 0x1b28 <DIO_enuSetPinValue>

00000f88 <.LVL124>:
     f88:	28 2f       	mov	r18, r24
     f8a:	39 2f       	mov	r19, r25

00000f8c <.LVL125>:
     f8c:	21 15       	cp	r18, r1
     f8e:	31 05       	cpc	r19, r1
     f90:	09 f0       	breq	.+2      	; 0xf94 <.Loc.301>

00000f92 <L0^A>:
     f92:	bd cf       	rjmp	.-134    	; 0xf0e <.L26>

00000f94 <.Loc.301>:
     f94:	88 81       	ld	r24, Y

00000f96 <.Loc.303>:
     f96:	81 11       	cpse	r24, r1
     f98:	ba cf       	rjmp	.-140    	; 0xf0e <.L26>

00000f9a <.Loc.304>:
     f9a:	61 2f       	mov	r22, r17
     f9c:	62 95       	swap	r22
     f9e:	60 7f       	andi	r22, 0xF0	; 240
     fa0:	ce 01       	movw	r24, r28
     fa2:	0e 94 e9 05 	call	0xbd2	; 0xbd2 <LCD_enuPushBits>

00000fa6 <.LVL126>:
     fa6:	28 2f       	mov	r18, r24
     fa8:	39 2f       	mov	r19, r25

00000faa <.LVL127>:
     faa:	21 15       	cp	r18, r1
     fac:	31 05       	cpc	r19, r1
     fae:	09 f0       	breq	.+2      	; 0xfb2 <.LBB81>

00000fb0 <L0^A>:
     fb0:	ae cf       	rjmp	.-164    	; 0xf0e <.L26>

00000fb2 <.LBB81>:
     fb2:	8f ec       	ldi	r24, 0xCF	; 207
     fb4:	97 e0       	ldi	r25, 0x07	; 7

00000fb6 <.L1^B8>:
     fb6:	01 97       	sbiw	r24, 0x01	; 1
     fb8:	f1 f7       	brne	.-4      	; 0xfb6 <.L1^B8>
     fba:	00 c0       	rjmp	.+0      	; 0xfbc <L0^A>

00000fbc <L0^A>:
	...

00000fbe <.LBE81>:
     fbe:	41 e0       	ldi	r20, 0x01	; 1
     fc0:	6a 85       	ldd	r22, Y+10	; 0x0a
     fc2:	89 85       	ldd	r24, Y+9	; 0x09
     fc4:	0e 94 94 0d 	call	0x1b28	; 0x1b28 <DIO_enuSetPinValue>

00000fc8 <.LVL130>:
     fc8:	28 2f       	mov	r18, r24
     fca:	39 2f       	mov	r19, r25

00000fcc <.LVL131>:
     fcc:	21 15       	cp	r18, r1
     fce:	31 05       	cpc	r19, r1
     fd0:	09 f0       	breq	.+2      	; 0xfd4 <.LBB83>

00000fd2 <L0^A>:
     fd2:	9d cf       	rjmp	.-198    	; 0xf0e <.L26>

00000fd4 <.LBB83>:
     fd4:	8f ec       	ldi	r24, 0xCF	; 207
     fd6:	97 e0       	ldi	r25, 0x07	; 7

00000fd8 <.L1^B9>:
     fd8:	01 97       	sbiw	r24, 0x01	; 1
     fda:	f1 f7       	brne	.-4      	; 0xfd8 <.L1^B9>
     fdc:	00 c0       	rjmp	.+0      	; 0xfde <L0^A>

00000fde <L0^A>:
	...

00000fe0 <.LBE83>:
     fe0:	40 e0       	ldi	r20, 0x00	; 0
     fe2:	6a 85       	ldd	r22, Y+10	; 0x0a
     fe4:	89 85       	ldd	r24, Y+9	; 0x09
     fe6:	0e 94 94 0d 	call	0x1b28	; 0x1b28 <DIO_enuSetPinValue>

00000fea <.LVL134>:
     fea:	28 2f       	mov	r18, r24
     fec:	39 2f       	mov	r19, r25

00000fee <.Loc.335>:
     fee:	8f cf       	rjmp	.-226    	; 0xf0e <.L26>

00000ff0 <LCD_WriteDataToCGRAMOrDDRAM>:
     ff0:	0e 94 77 07 	call	0xeee	; 0xeee <LCD_enuWriteData>

00000ff4 <.LVL137>:
     ff4:	08 95       	ret

00000ff6 <LCD_enuInit>:
     ff6:	ff 92       	push	r15

00000ff8 <.LCFI12>:
     ff8:	0f 93       	push	r16

00000ffa <.LCFI13>:
     ffa:	1f 93       	push	r17

00000ffc <.LCFI14>:
     ffc:	cf 93       	push	r28

00000ffe <.LCFI15>:
     ffe:	df 93       	push	r29

00001000 <.LBB85>:
    1000:	8f e5       	ldi	r24, 0x5F	; 95
    1002:	9a ee       	ldi	r25, 0xEA	; 234

00001004 <.L1^B10>:
    1004:	01 97       	sbiw	r24, 0x01	; 1
    1006:	f1 f7       	brne	.-4      	; 0x1004 <.L1^B10>
    1008:	00 c0       	rjmp	.+0      	; 0x100a <L0^A>

0000100a <L0^A>:
	...

0000100c <.LBB87>:
    100c:	f1 2c       	mov	r15, r1

0000100e <.LBE87>:
    100e:	21 e0       	ldi	r18, 0x01	; 1
    1010:	30 e0       	ldi	r19, 0x00	; 0

00001012 <.LBB88>:
    1012:	37 c0       	rjmp	.+110    	; 0x1082 <.L31>

00001014 <.L33>:
    1014:	8b e1       	ldi	r24, 0x1B	; 27
    1016:	8c 9f       	mul	r24, r28
    1018:	80 01       	movw	r16, r0
    101a:	8d 9f       	mul	r24, r29
    101c:	10 0d       	add	r17, r0
    101e:	11 24       	eor	r1, r1
    1020:	08 57       	subi	r16, 0x78	; 120
    1022:	1f 4f       	sbci	r17, 0xFF	; 255
    1024:	f8 01       	movw	r30, r16
    1026:	24 81       	ldd	r18, Z+4	; 0x04

00001028 <.LVL141>:
    1028:	43 81       	ldd	r20, Z+3	; 0x03
    102a:	60 81       	ld	r22, Z
    102c:	c8 01       	movw	r24, r16
    102e:	0e 94 12 07 	call	0xe24	; 0xe24 <LCD_enuFunctionSet>

00001032 <.LVL142>:
    1032:	28 2f       	mov	r18, r24
    1034:	39 2f       	mov	r19, r25

00001036 <.LVL143>:
    1036:	21 15       	cp	r18, r1
    1038:	31 05       	cpc	r19, r1
    103a:	09 f0       	breq	.+2      	; 0x103e <.Loc.361>

0000103c <L0^A>:
    103c:	01 c1       	rjmp	.+514    	; 0x1240 <.L30>

0000103e <.Loc.361>:
    103e:	f8 01       	movw	r30, r16
    1040:	22 81       	ldd	r18, Z+2	; 0x02

00001042 <.LVL144>:
    1042:	41 81       	ldd	r20, Z+1	; 0x01
    1044:	61 e0       	ldi	r22, 0x01	; 1
    1046:	c8 01       	movw	r24, r16
    1048:	0e 94 d4 06 	call	0xda8	; 0xda8 <LCD_DisplayOnOff>

0000104c <.LVL145>:
    104c:	28 2f       	mov	r18, r24
    104e:	39 2f       	mov	r19, r25

00001050 <.LVL146>:
    1050:	21 15       	cp	r18, r1
    1052:	31 05       	cpc	r19, r1
    1054:	09 f0       	breq	.+2      	; 0x1058 <.Loc.366>

00001056 <L0^A>:
    1056:	f4 c0       	rjmp	.+488    	; 0x1240 <.L30>

00001058 <.Loc.366>:
    1058:	c8 01       	movw	r24, r16
    105a:	0e 94 f3 06 	call	0xde6	; 0xde6 <LCD_DisplayClear>

0000105e <.LVL147>:
    105e:	28 2f       	mov	r18, r24
    1060:	39 2f       	mov	r19, r25

00001062 <.LVL148>:
    1062:	21 15       	cp	r18, r1
    1064:	31 05       	cpc	r19, r1
    1066:	09 f0       	breq	.+2      	; 0x106a <.Loc.371>

00001068 <L0^A>:
    1068:	eb c0       	rjmp	.+470    	; 0x1240 <.L30>

0000106a <.Loc.371>:
    106a:	40 e0       	ldi	r20, 0x00	; 0
    106c:	61 e0       	ldi	r22, 0x01	; 1
    106e:	c8 01       	movw	r24, r16
    1070:	0e 94 f7 06 	call	0xdee	; 0xdee <LCD_EntryModeSet>

00001074 <.LVL149>:
    1074:	28 2f       	mov	r18, r24
    1076:	39 2f       	mov	r19, r25

00001078 <.LVL150>:
    1078:	21 15       	cp	r18, r1
    107a:	31 05       	cpc	r19, r1
    107c:	09 f0       	breq	.+2      	; 0x1080 <.Loc.376>

0000107e <L0^A>:
    107e:	e0 c0       	rjmp	.+448    	; 0x1240 <.L30>

00001080 <.Loc.376>:
    1080:	f3 94       	inc	r15

00001082 <.L31>:
    1082:	80 91 a3 00 	lds	r24, 0x00A3	; 0x8000a3 <LCD_u8DisplayNum>
    1086:	f8 16       	cp	r15, r24
    1088:	08 f0       	brcs	.+2      	; 0x108c <.Loc.378>

0000108a <L0^A>:
    108a:	da c0       	rjmp	.+436    	; 0x1240 <.L30>

0000108c <.Loc.378>:
    108c:	cf 2d       	mov	r28, r15
    108e:	d0 e0       	ldi	r29, 0x00	; 0
    1090:	9b e1       	ldi	r25, 0x1B	; 27
    1092:	f9 9e       	mul	r15, r25
    1094:	f0 01       	movw	r30, r0
    1096:	11 24       	eor	r1, r1
    1098:	e8 57       	subi	r30, 0x78	; 120
    109a:	ff 4f       	sbci	r31, 0xFF	; 255
    109c:	41 e0       	ldi	r20, 0x01	; 1
    109e:	66 81       	ldd	r22, Z+6	; 0x06
    10a0:	85 81       	ldd	r24, Z+5	; 0x05
    10a2:	0e 94 5c 0d 	call	0x1ab8	; 0x1ab8 <DIO_enuSetPinDirection>

000010a6 <.LVL152>:
    10a6:	28 2f       	mov	r18, r24
    10a8:	39 2f       	mov	r19, r25

000010aa <.LVL153>:
    10aa:	21 15       	cp	r18, r1
    10ac:	31 05       	cpc	r19, r1
    10ae:	09 f0       	breq	.+2      	; 0x10b2 <.Loc.383>

000010b0 <L0^A>:
    10b0:	c7 c0       	rjmp	.+398    	; 0x1240 <.L30>

000010b2 <.Loc.383>:
    10b2:	8b e1       	ldi	r24, 0x1B	; 27
    10b4:	8c 9f       	mul	r24, r28
    10b6:	f0 01       	movw	r30, r0
    10b8:	8d 9f       	mul	r24, r29
    10ba:	f0 0d       	add	r31, r0
    10bc:	11 24       	eor	r1, r1
    10be:	e8 57       	subi	r30, 0x78	; 120
    10c0:	ff 4f       	sbci	r31, 0xFF	; 255
    10c2:	41 e0       	ldi	r20, 0x01	; 1
    10c4:	60 85       	ldd	r22, Z+8	; 0x08
    10c6:	87 81       	ldd	r24, Z+7	; 0x07
    10c8:	0e 94 5c 0d 	call	0x1ab8	; 0x1ab8 <DIO_enuSetPinDirection>

000010cc <.LVL154>:
    10cc:	28 2f       	mov	r18, r24
    10ce:	39 2f       	mov	r19, r25

000010d0 <.LVL155>:
    10d0:	21 15       	cp	r18, r1
    10d2:	31 05       	cpc	r19, r1
    10d4:	09 f0       	breq	.+2      	; 0x10d8 <.Loc.388>

000010d6 <L0^A>:
    10d6:	b4 c0       	rjmp	.+360    	; 0x1240 <.L30>

000010d8 <.Loc.388>:
    10d8:	8b e1       	ldi	r24, 0x1B	; 27
    10da:	8c 9f       	mul	r24, r28
    10dc:	f0 01       	movw	r30, r0
    10de:	8d 9f       	mul	r24, r29
    10e0:	f0 0d       	add	r31, r0
    10e2:	11 24       	eor	r1, r1
    10e4:	e8 57       	subi	r30, 0x78	; 120
    10e6:	ff 4f       	sbci	r31, 0xFF	; 255
    10e8:	41 e0       	ldi	r20, 0x01	; 1
    10ea:	62 85       	ldd	r22, Z+10	; 0x0a
    10ec:	81 85       	ldd	r24, Z+9	; 0x09
    10ee:	0e 94 5c 0d 	call	0x1ab8	; 0x1ab8 <DIO_enuSetPinDirection>

000010f2 <.LVL156>:
    10f2:	28 2f       	mov	r18, r24
    10f4:	39 2f       	mov	r19, r25

000010f6 <.LVL157>:
    10f6:	21 15       	cp	r18, r1
    10f8:	31 05       	cpc	r19, r1
    10fa:	09 f0       	breq	.+2      	; 0x10fe <.Loc.393>

000010fc <L0^A>:
    10fc:	a1 c0       	rjmp	.+322    	; 0x1240 <.L30>

000010fe <.Loc.393>:
    10fe:	8b e1       	ldi	r24, 0x1B	; 27
    1100:	8c 9f       	mul	r24, r28
    1102:	f0 01       	movw	r30, r0
    1104:	8d 9f       	mul	r24, r29
    1106:	f0 0d       	add	r31, r0
    1108:	11 24       	eor	r1, r1
    110a:	e8 57       	subi	r30, 0x78	; 120
    110c:	ff 4f       	sbci	r31, 0xFF	; 255
    110e:	41 e0       	ldi	r20, 0x01	; 1
    1110:	64 89       	ldd	r22, Z+20	; 0x14
    1112:	83 89       	ldd	r24, Z+19	; 0x13
    1114:	0e 94 5c 0d 	call	0x1ab8	; 0x1ab8 <DIO_enuSetPinDirection>

00001118 <.LVL158>:
    1118:	28 2f       	mov	r18, r24
    111a:	39 2f       	mov	r19, r25

0000111c <.LVL159>:
    111c:	21 15       	cp	r18, r1
    111e:	31 05       	cpc	r19, r1
    1120:	09 f0       	breq	.+2      	; 0x1124 <.Loc.398>

00001122 <L0^A>:
    1122:	8e c0       	rjmp	.+284    	; 0x1240 <.L30>

00001124 <.Loc.398>:
    1124:	8b e1       	ldi	r24, 0x1B	; 27
    1126:	8c 9f       	mul	r24, r28
    1128:	f0 01       	movw	r30, r0
    112a:	8d 9f       	mul	r24, r29
    112c:	f0 0d       	add	r31, r0
    112e:	11 24       	eor	r1, r1
    1130:	e8 57       	subi	r30, 0x78	; 120
    1132:	ff 4f       	sbci	r31, 0xFF	; 255
    1134:	41 e0       	ldi	r20, 0x01	; 1
    1136:	66 89       	ldd	r22, Z+22	; 0x16
    1138:	85 89       	ldd	r24, Z+21	; 0x15
    113a:	0e 94 5c 0d 	call	0x1ab8	; 0x1ab8 <DIO_enuSetPinDirection>

0000113e <.LVL160>:
    113e:	28 2f       	mov	r18, r24
    1140:	39 2f       	mov	r19, r25

00001142 <.LVL161>:
    1142:	21 15       	cp	r18, r1
    1144:	31 05       	cpc	r19, r1
    1146:	09 f0       	breq	.+2      	; 0x114a <.Loc.403>

00001148 <L0^A>:
    1148:	7b c0       	rjmp	.+246    	; 0x1240 <.L30>

0000114a <.Loc.403>:
    114a:	8b e1       	ldi	r24, 0x1B	; 27
    114c:	8c 9f       	mul	r24, r28
    114e:	f0 01       	movw	r30, r0
    1150:	8d 9f       	mul	r24, r29
    1152:	f0 0d       	add	r31, r0
    1154:	11 24       	eor	r1, r1
    1156:	e8 57       	subi	r30, 0x78	; 120
    1158:	ff 4f       	sbci	r31, 0xFF	; 255
    115a:	41 e0       	ldi	r20, 0x01	; 1
    115c:	60 8d       	ldd	r22, Z+24	; 0x18
    115e:	87 89       	ldd	r24, Z+23	; 0x17
    1160:	0e 94 5c 0d 	call	0x1ab8	; 0x1ab8 <DIO_enuSetPinDirection>

00001164 <.LVL162>:
    1164:	28 2f       	mov	r18, r24
    1166:	39 2f       	mov	r19, r25

00001168 <.LVL163>:
    1168:	21 15       	cp	r18, r1
    116a:	31 05       	cpc	r19, r1
    116c:	09 f0       	breq	.+2      	; 0x1170 <.Loc.408>

0000116e <L0^A>:
    116e:	68 c0       	rjmp	.+208    	; 0x1240 <.L30>

00001170 <.Loc.408>:
    1170:	8b e1       	ldi	r24, 0x1B	; 27
    1172:	8c 9f       	mul	r24, r28
    1174:	f0 01       	movw	r30, r0
    1176:	8d 9f       	mul	r24, r29
    1178:	f0 0d       	add	r31, r0
    117a:	11 24       	eor	r1, r1
    117c:	e8 57       	subi	r30, 0x78	; 120
    117e:	ff 4f       	sbci	r31, 0xFF	; 255
    1180:	41 e0       	ldi	r20, 0x01	; 1
    1182:	62 8d       	ldd	r22, Z+26	; 0x1a
    1184:	81 8d       	ldd	r24, Z+25	; 0x19
    1186:	0e 94 5c 0d 	call	0x1ab8	; 0x1ab8 <DIO_enuSetPinDirection>

0000118a <.LVL164>:
    118a:	28 2f       	mov	r18, r24
    118c:	39 2f       	mov	r19, r25

0000118e <.LVL165>:
    118e:	21 15       	cp	r18, r1
    1190:	31 05       	cpc	r19, r1
    1192:	09 f0       	breq	.+2      	; 0x1196 <.Loc.413>

00001194 <L0^A>:
    1194:	55 c0       	rjmp	.+170    	; 0x1240 <.L30>

00001196 <.Loc.413>:
    1196:	8b e1       	ldi	r24, 0x1B	; 27
    1198:	8c 9f       	mul	r24, r28
    119a:	f0 01       	movw	r30, r0
    119c:	8d 9f       	mul	r24, r29
    119e:	f0 0d       	add	r31, r0
    11a0:	11 24       	eor	r1, r1
    11a2:	e8 57       	subi	r30, 0x78	; 120
    11a4:	ff 4f       	sbci	r31, 0xFF	; 255
    11a6:	80 81       	ld	r24, Z

000011a8 <.Loc.415>:
    11a8:	88 23       	and	r24, r24
    11aa:	09 f4       	brne	.+2      	; 0x11ae <.Loc.416>

000011ac <L0^A>:
    11ac:	33 cf       	rjmp	.-410    	; 0x1014 <.L33>

000011ae <.Loc.416>:
    11ae:	8b e1       	ldi	r24, 0x1B	; 27
    11b0:	8c 9f       	mul	r24, r28
    11b2:	f0 01       	movw	r30, r0
    11b4:	8d 9f       	mul	r24, r29
    11b6:	f0 0d       	add	r31, r0
    11b8:	11 24       	eor	r1, r1
    11ba:	e8 57       	subi	r30, 0x78	; 120
    11bc:	ff 4f       	sbci	r31, 0xFF	; 255
    11be:	41 e0       	ldi	r20, 0x01	; 1
    11c0:	64 85       	ldd	r22, Z+12	; 0x0c
    11c2:	83 85       	ldd	r24, Z+11	; 0x0b
    11c4:	0e 94 5c 0d 	call	0x1ab8	; 0x1ab8 <DIO_enuSetPinDirection>

000011c8 <.LVL166>:
    11c8:	28 2f       	mov	r18, r24
    11ca:	39 2f       	mov	r19, r25

000011cc <.LVL167>:
    11cc:	21 15       	cp	r18, r1
    11ce:	31 05       	cpc	r19, r1
    11d0:	b9 f5       	brne	.+110    	; 0x1240 <.L30>

000011d2 <.Loc.421>:
    11d2:	8b e1       	ldi	r24, 0x1B	; 27
    11d4:	8c 9f       	mul	r24, r28
    11d6:	f0 01       	movw	r30, r0
    11d8:	8d 9f       	mul	r24, r29
    11da:	f0 0d       	add	r31, r0
    11dc:	11 24       	eor	r1, r1
    11de:	e8 57       	subi	r30, 0x78	; 120
    11e0:	ff 4f       	sbci	r31, 0xFF	; 255
    11e2:	41 e0       	ldi	r20, 0x01	; 1
    11e4:	66 85       	ldd	r22, Z+14	; 0x0e
    11e6:	85 85       	ldd	r24, Z+13	; 0x0d
    11e8:	0e 94 5c 0d 	call	0x1ab8	; 0x1ab8 <DIO_enuSetPinDirection>

000011ec <.LVL168>:
    11ec:	28 2f       	mov	r18, r24
    11ee:	39 2f       	mov	r19, r25

000011f0 <.LVL169>:
    11f0:	21 15       	cp	r18, r1
    11f2:	31 05       	cpc	r19, r1
    11f4:	29 f5       	brne	.+74     	; 0x1240 <.L30>

000011f6 <.Loc.426>:
    11f6:	8b e1       	ldi	r24, 0x1B	; 27
    11f8:	8c 9f       	mul	r24, r28
    11fa:	f0 01       	movw	r30, r0
    11fc:	8d 9f       	mul	r24, r29
    11fe:	f0 0d       	add	r31, r0
    1200:	11 24       	eor	r1, r1
    1202:	e8 57       	subi	r30, 0x78	; 120
    1204:	ff 4f       	sbci	r31, 0xFF	; 255
    1206:	41 e0       	ldi	r20, 0x01	; 1
    1208:	60 89       	ldd	r22, Z+16	; 0x10
    120a:	87 85       	ldd	r24, Z+15	; 0x0f
    120c:	0e 94 5c 0d 	call	0x1ab8	; 0x1ab8 <DIO_enuSetPinDirection>

00001210 <.LVL170>:
    1210:	28 2f       	mov	r18, r24
    1212:	39 2f       	mov	r19, r25

00001214 <.LVL171>:
    1214:	21 15       	cp	r18, r1
    1216:	31 05       	cpc	r19, r1
    1218:	99 f4       	brne	.+38     	; 0x1240 <.L30>

0000121a <.Loc.431>:
    121a:	8b e1       	ldi	r24, 0x1B	; 27
    121c:	8c 9f       	mul	r24, r28
    121e:	f0 01       	movw	r30, r0
    1220:	8d 9f       	mul	r24, r29
    1222:	f0 0d       	add	r31, r0
    1224:	11 24       	eor	r1, r1
    1226:	e8 57       	subi	r30, 0x78	; 120
    1228:	ff 4f       	sbci	r31, 0xFF	; 255
    122a:	41 e0       	ldi	r20, 0x01	; 1
    122c:	62 89       	ldd	r22, Z+18	; 0x12
    122e:	81 89       	ldd	r24, Z+17	; 0x11
    1230:	0e 94 5c 0d 	call	0x1ab8	; 0x1ab8 <DIO_enuSetPinDirection>

00001234 <.LVL172>:
    1234:	28 2f       	mov	r18, r24
    1236:	39 2f       	mov	r19, r25

00001238 <.LVL173>:
    1238:	21 15       	cp	r18, r1
    123a:	31 05       	cpc	r19, r1
    123c:	09 f4       	brne	.+2      	; 0x1240 <.L30>

0000123e <L0^A>:
    123e:	ea ce       	rjmp	.-556    	; 0x1014 <.L33>

00001240 <.L30>:
    1240:	c9 01       	movw	r24, r18
    1242:	df 91       	pop	r29
    1244:	cf 91       	pop	r28
    1246:	1f 91       	pop	r17
    1248:	0f 91       	pop	r16
    124a:	ff 90       	pop	r15

0000124c <.LVL174>:
    124c:	08 95       	ret

0000124e <LCD_enuGotoPosition>:
    124e:	e8 2f       	mov	r30, r24
    1250:	f9 2f       	mov	r31, r25

00001252 <.Loc.441>:
    1252:	30 97       	sbiw	r30, 0x00	; 0
    1254:	01 f1       	breq	.+64     	; 0x1296 <.L37>

00001256 <.Loc.443>:
    1256:	80 e0       	ldi	r24, 0x00	; 0
    1258:	e8 38       	cpi	r30, 0x88	; 136
    125a:	f8 07       	cpc	r31, r24

0000125c <.LVL176>:
    125c:	f8 f0       	brcs	.+62     	; 0x129c <.L38>

0000125e <.Loc.446>:
    125e:	50 91 a3 00 	lds	r21, 0x00A3	; 0x8000a3 <LCD_u8DisplayNum>
    1262:	29 ed       	ldi	r18, 0xD9	; 217
    1264:	32 e0       	ldi	r19, 0x02	; 2
    1266:	52 9f       	mul	r21, r18
    1268:	c0 01       	movw	r24, r0
    126a:	53 9f       	mul	r21, r19
    126c:	90 0d       	add	r25, r0
    126e:	11 24       	eor	r1, r1
    1270:	88 57       	subi	r24, 0x78	; 120
    1272:	9f 4f       	sbci	r25, 0xFF	; 255

00001274 <.Loc.447>:
    1274:	8e 17       	cp	r24, r30
    1276:	9f 07       	cpc	r25, r31
    1278:	a0 f0       	brcs	.+40     	; 0x12a2 <.L39>

0000127a <.Loc.448>:
    127a:	83 81       	ldd	r24, Z+3	; 0x03

0000127c <.Loc.450>:
    127c:	86 17       	cp	r24, r22
    127e:	a0 f0       	brcs	.+40     	; 0x12a8 <.L40>

00001280 <.Loc.451>:
    1280:	40 31       	cpi	r20, 0x10	; 16
    1282:	a8 f4       	brcc	.+42     	; 0x12ae <.L41>

00001284 <.Loc.452>:
    1284:	62 95       	swap	r22

00001286 <.LVL177>:
    1286:	66 0f       	add	r22, r22
    1288:	66 0f       	add	r22, r22
    128a:	60 7c       	andi	r22, 0xC0	; 192
    128c:	64 0f       	add	r22, r20
    128e:	cf 01       	movw	r24, r30
    1290:	0e 94 09 07 	call	0xe12	; 0xe12 <LCD_SetDDRAMAddress>

00001294 <.LVL178>:
    1294:	08 95       	ret

00001296 <.L37>:
    1296:	82 e0       	ldi	r24, 0x02	; 2

00001298 <.LVL180>:
    1298:	90 e0       	ldi	r25, 0x00	; 0
    129a:	08 95       	ret

0000129c <.L38>:
    129c:	84 e0       	ldi	r24, 0x04	; 4
    129e:	90 e0       	ldi	r25, 0x00	; 0
    12a0:	08 95       	ret

000012a2 <.L39>:
    12a2:	84 e0       	ldi	r24, 0x04	; 4
    12a4:	90 e0       	ldi	r25, 0x00	; 0
    12a6:	08 95       	ret

000012a8 <.L40>:
    12a8:	84 e0       	ldi	r24, 0x04	; 4
    12aa:	90 e0       	ldi	r25, 0x00	; 0
    12ac:	08 95       	ret

000012ae <.L41>:
    12ae:	84 e0       	ldi	r24, 0x04	; 4
    12b0:	90 e0       	ldi	r25, 0x00	; 0

000012b2 <.Loc.460>:
    12b2:	08 95       	ret

000012b4 <LCD_enuWriteChar>:
    12b4:	28 2f       	mov	r18, r24
    12b6:	39 2f       	mov	r19, r25

000012b8 <.Loc.463>:
    12b8:	21 15       	cp	r18, r1
    12ba:	31 05       	cpc	r19, r1
    12bc:	b1 f0       	breq	.+44     	; 0x12ea <.L44>

000012be <.Loc.465>:
    12be:	80 e0       	ldi	r24, 0x00	; 0
    12c0:	28 38       	cpi	r18, 0x88	; 136
    12c2:	38 07       	cpc	r19, r24

000012c4 <.LVL182>:
    12c4:	a8 f0       	brcs	.+42     	; 0x12f0 <.L45>

000012c6 <.Loc.468>:
    12c6:	70 91 a3 00 	lds	r23, 0x00A3	; 0x8000a3 <LCD_u8DisplayNum>
    12ca:	49 ed       	ldi	r20, 0xD9	; 217
    12cc:	52 e0       	ldi	r21, 0x02	; 2
    12ce:	74 9f       	mul	r23, r20
    12d0:	c0 01       	movw	r24, r0
    12d2:	75 9f       	mul	r23, r21
    12d4:	90 0d       	add	r25, r0
    12d6:	11 24       	eor	r1, r1
    12d8:	88 57       	subi	r24, 0x78	; 120
    12da:	9f 4f       	sbci	r25, 0xFF	; 255

000012dc <.Loc.469>:
    12dc:	82 17       	cp	r24, r18
    12de:	93 07       	cpc	r25, r19
    12e0:	50 f0       	brcs	.+20     	; 0x12f6 <.L46>

000012e2 <.Loc.470>:
    12e2:	c9 01       	movw	r24, r18
    12e4:	0e 94 f8 07 	call	0xff0	; 0xff0 <LCD_WriteDataToCGRAMOrDDRAM>

000012e8 <.LVL183>:
    12e8:	08 95       	ret

000012ea <.L44>:
    12ea:	82 e0       	ldi	r24, 0x02	; 2

000012ec <.LVL185>:
    12ec:	90 e0       	ldi	r25, 0x00	; 0
    12ee:	08 95       	ret

000012f0 <.L45>:
    12f0:	84 e0       	ldi	r24, 0x04	; 4
    12f2:	90 e0       	ldi	r25, 0x00	; 0
    12f4:	08 95       	ret

000012f6 <.L46>:
    12f6:	84 e0       	ldi	r24, 0x04	; 4
    12f8:	90 e0       	ldi	r25, 0x00	; 0

000012fa <.Loc.476>:
    12fa:	08 95       	ret

000012fc <LCD_enuWriteString>:
    12fc:	0f 93       	push	r16

000012fe <.LCFI17>:
    12fe:	1f 93       	push	r17

00001300 <.LCFI18>:
    1300:	cf 93       	push	r28

00001302 <.LCFI19>:
    1302:	df 93       	push	r29

00001304 <.LCFI20>:
    1304:	08 2f       	mov	r16, r24
    1306:	19 2f       	mov	r17, r25
    1308:	c6 2f       	mov	r28, r22
    130a:	d7 2f       	mov	r29, r23

0000130c <.Loc.479>:
    130c:	01 15       	cp	r16, r1
    130e:	11 05       	cpc	r17, r1
    1310:	49 f1       	breq	.+82     	; 0x1364 <.L51>

00001312 <.Loc.481>:
    1312:	20 97       	sbiw	r28, 0x00	; 0
    1314:	51 f1       	breq	.+84     	; 0x136a <.L52>

00001316 <.Loc.482>:
    1316:	80 e0       	ldi	r24, 0x00	; 0
    1318:	08 38       	cpi	r16, 0x88	; 136
    131a:	18 07       	cpc	r17, r24

0000131c <.LVL187>:
    131c:	48 f1       	brcs	.+82     	; 0x1370 <.L53>

0000131e <.Loc.485>:
    131e:	40 91 a3 00 	lds	r20, 0x00A3	; 0x8000a3 <LCD_u8DisplayNum>
    1322:	29 ed       	ldi	r18, 0xD9	; 217
    1324:	32 e0       	ldi	r19, 0x02	; 2
    1326:	42 9f       	mul	r20, r18
    1328:	c0 01       	movw	r24, r0
    132a:	43 9f       	mul	r20, r19
    132c:	90 0d       	add	r25, r0
    132e:	11 24       	eor	r1, r1
    1330:	88 57       	subi	r24, 0x78	; 120
    1332:	9f 4f       	sbci	r25, 0xFF	; 255

00001334 <.Loc.486>:
    1334:	80 17       	cp	r24, r16
    1336:	91 07       	cpc	r25, r17
    1338:	f0 f0       	brcs	.+60     	; 0x1376 <.L55>

0000133a <.L49>:
    133a:	68 81       	ld	r22, Y

0000133c <.Loc.489>:
    133c:	66 23       	and	r22, r22
    133e:	51 f0       	breq	.+20     	; 0x1354 <.L56>

00001340 <.Loc.490>:
    1340:	c8 01       	movw	r24, r16
    1342:	0e 94 f8 07 	call	0xff0	; 0xff0 <LCD_WriteDataToCGRAMOrDDRAM>

00001346 <.LVL189>:
    1346:	28 2f       	mov	r18, r24
    1348:	39 2f       	mov	r19, r25

0000134a <.LVL190>:
    134a:	21 15       	cp	r18, r1
    134c:	31 05       	cpc	r19, r1
    134e:	21 f4       	brne	.+8      	; 0x1358 <.L47>

00001350 <.Loc.494>:
    1350:	21 96       	adiw	r28, 0x01	; 1

00001352 <.Loc.496>:
    1352:	f3 cf       	rjmp	.-26     	; 0x133a <.L49>

00001354 <.L56>:
    1354:	20 e0       	ldi	r18, 0x00	; 0
    1356:	30 e0       	ldi	r19, 0x00	; 0

00001358 <.L47>:
    1358:	c9 01       	movw	r24, r18
    135a:	df 91       	pop	r29
    135c:	cf 91       	pop	r28
    135e:	1f 91       	pop	r17
    1360:	0f 91       	pop	r16
    1362:	08 95       	ret

00001364 <.L51>:
    1364:	22 e0       	ldi	r18, 0x02	; 2
    1366:	30 e0       	ldi	r19, 0x00	; 0
    1368:	f7 cf       	rjmp	.-18     	; 0x1358 <.L47>

0000136a <.L52>:
    136a:	22 e0       	ldi	r18, 0x02	; 2
    136c:	30 e0       	ldi	r19, 0x00	; 0
    136e:	f4 cf       	rjmp	.-24     	; 0x1358 <.L47>

00001370 <.L53>:
    1370:	24 e0       	ldi	r18, 0x04	; 4
    1372:	30 e0       	ldi	r19, 0x00	; 0
    1374:	f1 cf       	rjmp	.-30     	; 0x1358 <.L47>

00001376 <.L55>:
    1376:	24 e0       	ldi	r18, 0x04	; 4
    1378:	30 e0       	ldi	r19, 0x00	; 0
    137a:	ee cf       	rjmp	.-36     	; 0x1358 <.L47>

0000137c <LCD_enuClear>:
    137c:	28 2f       	mov	r18, r24
    137e:	39 2f       	mov	r19, r25

00001380 <.Loc.503>:
    1380:	21 15       	cp	r18, r1
    1382:	31 05       	cpc	r19, r1
    1384:	b1 f0       	breq	.+44     	; 0x13b2 <.L59>

00001386 <.Loc.505>:
    1386:	80 e0       	ldi	r24, 0x00	; 0
    1388:	28 38       	cpi	r18, 0x88	; 136
    138a:	38 07       	cpc	r19, r24

0000138c <.LVL197>:
    138c:	a8 f0       	brcs	.+42     	; 0x13b8 <.L60>

0000138e <.Loc.508>:
    138e:	60 91 a3 00 	lds	r22, 0x00A3	; 0x8000a3 <LCD_u8DisplayNum>
    1392:	49 ed       	ldi	r20, 0xD9	; 217
    1394:	52 e0       	ldi	r21, 0x02	; 2
    1396:	64 9f       	mul	r22, r20
    1398:	c0 01       	movw	r24, r0
    139a:	65 9f       	mul	r22, r21
    139c:	90 0d       	add	r25, r0
    139e:	11 24       	eor	r1, r1
    13a0:	88 57       	subi	r24, 0x78	; 120
    13a2:	9f 4f       	sbci	r25, 0xFF	; 255

000013a4 <.Loc.509>:
    13a4:	82 17       	cp	r24, r18
    13a6:	93 07       	cpc	r25, r19
    13a8:	50 f0       	brcs	.+20     	; 0x13be <.L61>

000013aa <.Loc.510>:
    13aa:	c9 01       	movw	r24, r18
    13ac:	0e 94 f3 06 	call	0xde6	; 0xde6 <LCD_DisplayClear>

000013b0 <.LVL198>:
    13b0:	08 95       	ret

000013b2 <.L59>:
    13b2:	82 e0       	ldi	r24, 0x02	; 2

000013b4 <.LVL200>:
    13b4:	90 e0       	ldi	r25, 0x00	; 0
    13b6:	08 95       	ret

000013b8 <.L60>:
    13b8:	84 e0       	ldi	r24, 0x04	; 4
    13ba:	90 e0       	ldi	r25, 0x00	; 0
    13bc:	08 95       	ret

000013be <.L61>:
    13be:	84 e0       	ldi	r24, 0x04	; 4
    13c0:	90 e0       	ldi	r25, 0x00	; 0

000013c2 <.Loc.515>:
    13c2:	08 95       	ret

000013c4 <LCD_enuDisplayOn>:
    13c4:	e8 2f       	mov	r30, r24
    13c6:	f9 2f       	mov	r31, r25

000013c8 <.Loc.518>:
    13c8:	30 97       	sbiw	r30, 0x00	; 0
    13ca:	c9 f0       	breq	.+50     	; 0x13fe <.L64>

000013cc <.Loc.520>:
    13cc:	80 e0       	ldi	r24, 0x00	; 0
    13ce:	e8 38       	cpi	r30, 0x88	; 136
    13d0:	f8 07       	cpc	r31, r24

000013d2 <.LVL202>:
    13d2:	c0 f0       	brcs	.+48     	; 0x1404 <.L65>

000013d4 <.Loc.523>:
    13d4:	40 91 a3 00 	lds	r20, 0x00A3	; 0x8000a3 <LCD_u8DisplayNum>
    13d8:	29 ed       	ldi	r18, 0xD9	; 217
    13da:	32 e0       	ldi	r19, 0x02	; 2
    13dc:	42 9f       	mul	r20, r18
    13de:	c0 01       	movw	r24, r0
    13e0:	43 9f       	mul	r20, r19
    13e2:	90 0d       	add	r25, r0
    13e4:	11 24       	eor	r1, r1
    13e6:	88 57       	subi	r24, 0x78	; 120
    13e8:	9f 4f       	sbci	r25, 0xFF	; 255

000013ea <.Loc.524>:
    13ea:	8e 17       	cp	r24, r30
    13ec:	9f 07       	cpc	r25, r31
    13ee:	68 f0       	brcs	.+26     	; 0x140a <.L66>

000013f0 <.Loc.525>:
    13f0:	22 81       	ldd	r18, Z+2	; 0x02
    13f2:	41 81       	ldd	r20, Z+1	; 0x01
    13f4:	61 e0       	ldi	r22, 0x01	; 1
    13f6:	cf 01       	movw	r24, r30
    13f8:	0e 94 d4 06 	call	0xda8	; 0xda8 <LCD_DisplayOnOff>

000013fc <.LVL203>:
    13fc:	08 95       	ret

000013fe <.L64>:
    13fe:	82 e0       	ldi	r24, 0x02	; 2

00001400 <.LVL205>:
    1400:	90 e0       	ldi	r25, 0x00	; 0
    1402:	08 95       	ret

00001404 <.L65>:
    1404:	84 e0       	ldi	r24, 0x04	; 4
    1406:	90 e0       	ldi	r25, 0x00	; 0
    1408:	08 95       	ret

0000140a <.L66>:
    140a:	84 e0       	ldi	r24, 0x04	; 4
    140c:	90 e0       	ldi	r25, 0x00	; 0

0000140e <.Loc.530>:
    140e:	08 95       	ret

00001410 <LCD_enuDisplayOff>:
    1410:	e8 2f       	mov	r30, r24
    1412:	f9 2f       	mov	r31, r25

00001414 <.Loc.533>:
    1414:	30 97       	sbiw	r30, 0x00	; 0
    1416:	c9 f0       	breq	.+50     	; 0x144a <.L69>

00001418 <.Loc.535>:
    1418:	80 e0       	ldi	r24, 0x00	; 0
    141a:	e8 38       	cpi	r30, 0x88	; 136
    141c:	f8 07       	cpc	r31, r24

0000141e <.LVL207>:
    141e:	c0 f0       	brcs	.+48     	; 0x1450 <.L70>

00001420 <.Loc.538>:
    1420:	40 91 a3 00 	lds	r20, 0x00A3	; 0x8000a3 <LCD_u8DisplayNum>
    1424:	29 ed       	ldi	r18, 0xD9	; 217
    1426:	32 e0       	ldi	r19, 0x02	; 2
    1428:	42 9f       	mul	r20, r18
    142a:	c0 01       	movw	r24, r0
    142c:	43 9f       	mul	r20, r19
    142e:	90 0d       	add	r25, r0
    1430:	11 24       	eor	r1, r1
    1432:	88 57       	subi	r24, 0x78	; 120
    1434:	9f 4f       	sbci	r25, 0xFF	; 255

00001436 <.Loc.539>:
    1436:	8e 17       	cp	r24, r30
    1438:	9f 07       	cpc	r25, r31
    143a:	68 f0       	brcs	.+26     	; 0x1456 <.L71>

0000143c <.Loc.540>:
    143c:	20 e0       	ldi	r18, 0x00	; 0
    143e:	40 e0       	ldi	r20, 0x00	; 0
    1440:	60 e0       	ldi	r22, 0x00	; 0
    1442:	cf 01       	movw	r24, r30
    1444:	0e 94 d4 06 	call	0xda8	; 0xda8 <LCD_DisplayOnOff>

00001448 <.LVL208>:
    1448:	08 95       	ret

0000144a <.L69>:
    144a:	82 e0       	ldi	r24, 0x02	; 2

0000144c <.LVL210>:
    144c:	90 e0       	ldi	r25, 0x00	; 0
    144e:	08 95       	ret

00001450 <.L70>:
    1450:	84 e0       	ldi	r24, 0x04	; 4
    1452:	90 e0       	ldi	r25, 0x00	; 0
    1454:	08 95       	ret

00001456 <.L71>:
    1456:	84 e0       	ldi	r24, 0x04	; 4
    1458:	90 e0       	ldi	r25, 0x00	; 0

0000145a <.Loc.545>:
    145a:	08 95       	ret

0000145c <LCD_enuSendWriteCommand>:
    145c:	28 2f       	mov	r18, r24
    145e:	39 2f       	mov	r19, r25

00001460 <.Loc.548>:
    1460:	21 15       	cp	r18, r1
    1462:	31 05       	cpc	r19, r1
    1464:	b1 f0       	breq	.+44     	; 0x1492 <.L74>

00001466 <.Loc.550>:
    1466:	80 e0       	ldi	r24, 0x00	; 0
    1468:	28 38       	cpi	r18, 0x88	; 136
    146a:	38 07       	cpc	r19, r24

0000146c <.LVL212>:
    146c:	a8 f0       	brcs	.+42     	; 0x1498 <.L75>

0000146e <.Loc.553>:
    146e:	70 91 a3 00 	lds	r23, 0x00A3	; 0x8000a3 <LCD_u8DisplayNum>
    1472:	49 ed       	ldi	r20, 0xD9	; 217
    1474:	52 e0       	ldi	r21, 0x02	; 2
    1476:	74 9f       	mul	r23, r20
    1478:	c0 01       	movw	r24, r0
    147a:	75 9f       	mul	r23, r21
    147c:	90 0d       	add	r25, r0
    147e:	11 24       	eor	r1, r1
    1480:	88 57       	subi	r24, 0x78	; 120
    1482:	9f 4f       	sbci	r25, 0xFF	; 255

00001484 <.Loc.554>:
    1484:	82 17       	cp	r24, r18
    1486:	93 07       	cpc	r25, r19
    1488:	50 f0       	brcs	.+20     	; 0x149e <.L76>

0000148a <.Loc.555>:
    148a:	c9 01       	movw	r24, r18
    148c:	0e 94 57 06 	call	0xcae	; 0xcae <LCD_enuWriteCommand>

00001490 <.LVL213>:
    1490:	08 95       	ret

00001492 <.L74>:
    1492:	82 e0       	ldi	r24, 0x02	; 2

00001494 <.LVL215>:
    1494:	90 e0       	ldi	r25, 0x00	; 0
    1496:	08 95       	ret

00001498 <.L75>:
    1498:	84 e0       	ldi	r24, 0x04	; 4
    149a:	90 e0       	ldi	r25, 0x00	; 0
    149c:	08 95       	ret

0000149e <.L76>:
    149e:	84 e0       	ldi	r24, 0x04	; 4
    14a0:	90 e0       	ldi	r25, 0x00	; 0

000014a2 <.Loc.561>:
    14a2:	08 95       	ret

000014a4 <LED_enuInit>:
    14a4:	1f 93       	push	r17

000014a6 <.LCFI0>:
    14a6:	cf 93       	push	r28

000014a8 <.LCFI1>:
    14a8:	df 93       	push	r29

000014aa <.LBB2>:
    14aa:	10 e0       	ldi	r17, 0x00	; 0

000014ac <.LBE2>:
    14ac:	22 e0       	ldi	r18, 0x02	; 2
    14ae:	30 e0       	ldi	r19, 0x00	; 0

000014b0 <.LBB3>:
    14b0:	10 c0       	rjmp	.+32     	; 0x14d2 <.L2>

000014b2 <.L4>:
    14b2:	cc 0f       	add	r28, r28
    14b4:	dd 1f       	adc	r29, r29
    14b6:	cc 0f       	add	r28, r28
    14b8:	dd 1f       	adc	r29, r29
    14ba:	cc 55       	subi	r28, 0x5C	; 92
    14bc:	df 4f       	sbci	r29, 0xFF	; 255
    14be:	69 81       	ldd	r22, Y+1	; 0x01
    14c0:	88 81       	ld	r24, Y
    14c2:	0e 94 94 0d 	call	0x1b28	; 0x1b28 <DIO_enuSetPinValue>

000014c6 <.LVL2>:
    14c6:	28 2f       	mov	r18, r24
    14c8:	39 2f       	mov	r19, r25

000014ca <.LVL3>:
    14ca:	21 15       	cp	r18, r1
    14cc:	31 05       	cpc	r19, r1
    14ce:	e1 f5       	brne	.+120    	; 0x1548 <.L1>

000014d0 <.Loc.11>:
    14d0:	1f 5f       	subi	r17, 0xFF	; 255

000014d2 <.L2>:
    14d2:	80 91 a8 00 	lds	r24, 0x00A8	; 0x8000a8 <LED_u8NUM_OF_LEDS>
    14d6:	18 17       	cp	r17, r24
    14d8:	b8 f5       	brcc	.+110    	; 0x1548 <.L1>

000014da <.Loc.13>:
    14da:	c1 2f       	mov	r28, r17
    14dc:	d0 e0       	ldi	r29, 0x00	; 0
    14de:	fe 01       	movw	r30, r28
    14e0:	ee 0f       	add	r30, r30
    14e2:	ff 1f       	adc	r31, r31
    14e4:	ee 0f       	add	r30, r30
    14e6:	ff 1f       	adc	r31, r31
    14e8:	ec 55       	subi	r30, 0x5C	; 92
    14ea:	ff 4f       	sbci	r31, 0xFF	; 255
    14ec:	83 81       	ldd	r24, Z+3	; 0x03

000014ee <.Loc.15>:
    14ee:	82 30       	cpi	r24, 0x02	; 2
    14f0:	48 f5       	brcc	.+82     	; 0x1544 <.L6>

000014f2 <.Loc.16>:
    14f2:	fe 01       	movw	r30, r28
    14f4:	ee 0f       	add	r30, r30
    14f6:	ff 1f       	adc	r31, r31
    14f8:	ee 0f       	add	r30, r30
    14fa:	ff 1f       	adc	r31, r31
    14fc:	ec 55       	subi	r30, 0x5C	; 92
    14fe:	ff 4f       	sbci	r31, 0xFF	; 255
    1500:	82 81       	ldd	r24, Z+2	; 0x02

00001502 <.Loc.17>:
    1502:	82 30       	cpi	r24, 0x02	; 2
    1504:	30 f5       	brcc	.+76     	; 0x1552 <.L7>

00001506 <.Loc.18>:
    1506:	fe 01       	movw	r30, r28
    1508:	ee 0f       	add	r30, r30
    150a:	ff 1f       	adc	r31, r31
    150c:	ee 0f       	add	r30, r30
    150e:	ff 1f       	adc	r31, r31
    1510:	ec 55       	subi	r30, 0x5C	; 92
    1512:	ff 4f       	sbci	r31, 0xFF	; 255
    1514:	41 e0       	ldi	r20, 0x01	; 1
    1516:	61 81       	ldd	r22, Z+1	; 0x01
    1518:	80 81       	ld	r24, Z
    151a:	0e 94 5c 0d 	call	0x1ab8	; 0x1ab8 <DIO_enuSetPinDirection>

0000151e <.LVL5>:
    151e:	28 2f       	mov	r18, r24
    1520:	39 2f       	mov	r19, r25

00001522 <.LVL6>:
    1522:	21 15       	cp	r18, r1
    1524:	31 05       	cpc	r19, r1
    1526:	81 f4       	brne	.+32     	; 0x1548 <.L1>

00001528 <.Loc.23>:
    1528:	fe 01       	movw	r30, r28
    152a:	ee 0f       	add	r30, r30
    152c:	ff 1f       	adc	r31, r31
    152e:	ee 0f       	add	r30, r30
    1530:	ff 1f       	adc	r31, r31
    1532:	ec 55       	subi	r30, 0x5C	; 92
    1534:	ff 4f       	sbci	r31, 0xFF	; 255
    1536:	93 81       	ldd	r25, Z+3	; 0x03

00001538 <.Loc.25>:
    1538:	82 81       	ldd	r24, Z+2	; 0x02

0000153a <.Loc.26>:
    153a:	41 e0       	ldi	r20, 0x01	; 1
    153c:	98 13       	cpse	r25, r24
    153e:	b9 cf       	rjmp	.-142    	; 0x14b2 <.L4>
    1540:	40 e0       	ldi	r20, 0x00	; 0
    1542:	b7 cf       	rjmp	.-146    	; 0x14b2 <.L4>

00001544 <.L6>:
    1544:	24 e0       	ldi	r18, 0x04	; 4
    1546:	30 e0       	ldi	r19, 0x00	; 0

00001548 <.L1>:
    1548:	c9 01       	movw	r24, r18
    154a:	df 91       	pop	r29
    154c:	cf 91       	pop	r28
    154e:	1f 91       	pop	r17

00001550 <.LVL8>:
    1550:	08 95       	ret

00001552 <.L7>:
    1552:	24 e0       	ldi	r18, 0x04	; 4
    1554:	30 e0       	ldi	r19, 0x00	; 0

00001556 <.LVL10>:
    1556:	f8 cf       	rjmp	.-16     	; 0x1548 <.L1>

00001558 <LED_enuTurnOn>:
    1558:	e8 2f       	mov	r30, r24
    155a:	f9 2f       	mov	r31, r25

0000155c <.LVL12>:
    155c:	30 97       	sbiw	r30, 0x00	; 0
    155e:	01 f1       	breq	.+64     	; 0x15a0 <.L11>

00001560 <.Loc.38>:
    1560:	80 e0       	ldi	r24, 0x00	; 0
    1562:	e4 3a       	cpi	r30, 0xA4	; 164
    1564:	f8 07       	cpc	r31, r24

00001566 <.LVL13>:
    1566:	f8 f0       	brcs	.+62     	; 0x15a6 <.L12>

00001568 <.Loc.41>:
    1568:	80 91 a8 00 	lds	r24, 0x00A8	; 0x8000a8 <LED_u8NUM_OF_LEDS>
    156c:	81 50       	subi	r24, 0x01	; 1
    156e:	99 0b       	sbc	r25, r25

00001570 <.Loc.42>:
    1570:	82 95       	swap	r24
    1572:	92 95       	swap	r25
    1574:	90 7f       	andi	r25, 0xF0	; 240
    1576:	98 27       	eor	r25, r24
    1578:	80 7f       	andi	r24, 0xF0	; 240
    157a:	98 27       	eor	r25, r24
    157c:	8c 55       	subi	r24, 0x5C	; 92
    157e:	9f 4f       	sbci	r25, 0xFF	; 255

00001580 <.Loc.43>:
    1580:	8e 17       	cp	r24, r30
    1582:	9f 07       	cpc	r25, r31
    1584:	98 f0       	brcs	.+38     	; 0x15ac <.L13>

00001586 <.Loc.44>:
    1586:	82 81       	ldd	r24, Z+2	; 0x02

00001588 <.Loc.45>:
    1588:	82 30       	cpi	r24, 0x02	; 2
    158a:	98 f4       	brcc	.+38     	; 0x15b2 <.L14>

0000158c <.Loc.46>:
    158c:	41 e0       	ldi	r20, 0x01	; 1
    158e:	81 30       	cpi	r24, 0x01	; 1
    1590:	29 f0       	breq	.+10     	; 0x159c <.L15>

00001592 <.L10>:
    1592:	61 81       	ldd	r22, Z+1	; 0x01
    1594:	80 81       	ld	r24, Z
    1596:	0e 94 94 0d 	call	0x1b28	; 0x1b28 <DIO_enuSetPinValue>

0000159a <.LVL14>:
    159a:	08 95       	ret

0000159c <.L15>:
    159c:	40 e0       	ldi	r20, 0x00	; 0
    159e:	f9 cf       	rjmp	.-14     	; 0x1592 <.L10>

000015a0 <.L11>:
    15a0:	82 e0       	ldi	r24, 0x02	; 2

000015a2 <.LVL17>:
    15a2:	90 e0       	ldi	r25, 0x00	; 0
    15a4:	08 95       	ret

000015a6 <.L12>:
    15a6:	84 e0       	ldi	r24, 0x04	; 4
    15a8:	90 e0       	ldi	r25, 0x00	; 0
    15aa:	08 95       	ret

000015ac <.L13>:
    15ac:	84 e0       	ldi	r24, 0x04	; 4
    15ae:	90 e0       	ldi	r25, 0x00	; 0
    15b0:	08 95       	ret

000015b2 <.L14>:
    15b2:	84 e0       	ldi	r24, 0x04	; 4
    15b4:	90 e0       	ldi	r25, 0x00	; 0

000015b6 <.Loc.54>:
    15b6:	08 95       	ret

000015b8 <LED_enuTurnOff>:
    15b8:	e8 2f       	mov	r30, r24
    15ba:	f9 2f       	mov	r31, r25

000015bc <.LVL19>:
    15bc:	30 97       	sbiw	r30, 0x00	; 0
    15be:	f9 f0       	breq	.+62     	; 0x15fe <.L19>

000015c0 <.Loc.60>:
    15c0:	80 e0       	ldi	r24, 0x00	; 0
    15c2:	e4 3a       	cpi	r30, 0xA4	; 164
    15c4:	f8 07       	cpc	r31, r24

000015c6 <.LVL20>:
    15c6:	f0 f0       	brcs	.+60     	; 0x1604 <.L20>

000015c8 <.Loc.63>:
    15c8:	80 91 a8 00 	lds	r24, 0x00A8	; 0x8000a8 <LED_u8NUM_OF_LEDS>
    15cc:	81 50       	subi	r24, 0x01	; 1
    15ce:	99 0b       	sbc	r25, r25

000015d0 <.Loc.64>:
    15d0:	82 95       	swap	r24
    15d2:	92 95       	swap	r25
    15d4:	90 7f       	andi	r25, 0xF0	; 240
    15d6:	98 27       	eor	r25, r24
    15d8:	80 7f       	andi	r24, 0xF0	; 240
    15da:	98 27       	eor	r25, r24
    15dc:	8c 55       	subi	r24, 0x5C	; 92
    15de:	9f 4f       	sbci	r25, 0xFF	; 255

000015e0 <.Loc.65>:
    15e0:	8e 17       	cp	r24, r30
    15e2:	9f 07       	cpc	r25, r31
    15e4:	90 f0       	brcs	.+36     	; 0x160a <.L21>

000015e6 <.Loc.66>:
    15e6:	82 81       	ldd	r24, Z+2	; 0x02

000015e8 <.Loc.67>:
    15e8:	82 30       	cpi	r24, 0x02	; 2
    15ea:	90 f4       	brcc	.+36     	; 0x1610 <.L22>

000015ec <.Loc.68>:
    15ec:	41 e0       	ldi	r20, 0x01	; 1
    15ee:	81 11       	cpse	r24, r1
    15f0:	01 c0       	rjmp	.+2      	; 0x15f4 <.L18>
    15f2:	40 e0       	ldi	r20, 0x00	; 0

000015f4 <.L18>:
    15f4:	61 81       	ldd	r22, Z+1	; 0x01
    15f6:	80 81       	ld	r24, Z
    15f8:	0e 94 94 0d 	call	0x1b28	; 0x1b28 <DIO_enuSetPinValue>

000015fc <.LVL21>:
    15fc:	08 95       	ret

000015fe <.L19>:
    15fe:	82 e0       	ldi	r24, 0x02	; 2

00001600 <.LVL23>:
    1600:	90 e0       	ldi	r25, 0x00	; 0
    1602:	08 95       	ret

00001604 <.L20>:
    1604:	84 e0       	ldi	r24, 0x04	; 4
    1606:	90 e0       	ldi	r25, 0x00	; 0
    1608:	08 95       	ret

0000160a <.L21>:
    160a:	84 e0       	ldi	r24, 0x04	; 4
    160c:	90 e0       	ldi	r25, 0x00	; 0
    160e:	08 95       	ret

00001610 <.L22>:
    1610:	84 e0       	ldi	r24, 0x04	; 4
    1612:	90 e0       	ldi	r25, 0x00	; 0

00001614 <.Loc.75>:
    1614:	08 95       	ret

00001616 <LED_enuToggle>:
    1616:	e8 2f       	mov	r30, r24
    1618:	f9 2f       	mov	r31, r25

0000161a <.LVL25>:
    161a:	30 97       	sbiw	r30, 0x00	; 0
    161c:	d9 f0       	breq	.+54     	; 0x1654 <.L25>

0000161e <.Loc.81>:
    161e:	80 e0       	ldi	r24, 0x00	; 0
    1620:	e4 3a       	cpi	r30, 0xA4	; 164
    1622:	f8 07       	cpc	r31, r24

00001624 <.LVL26>:
    1624:	d0 f0       	brcs	.+52     	; 0x165a <.L26>

00001626 <.Loc.84>:
    1626:	80 91 a8 00 	lds	r24, 0x00A8	; 0x8000a8 <LED_u8NUM_OF_LEDS>
    162a:	81 50       	subi	r24, 0x01	; 1
    162c:	99 0b       	sbc	r25, r25

0000162e <.Loc.85>:
    162e:	82 95       	swap	r24
    1630:	92 95       	swap	r25
    1632:	90 7f       	andi	r25, 0xF0	; 240
    1634:	98 27       	eor	r25, r24
    1636:	80 7f       	andi	r24, 0xF0	; 240
    1638:	98 27       	eor	r25, r24
    163a:	8c 55       	subi	r24, 0x5C	; 92
    163c:	9f 4f       	sbci	r25, 0xFF	; 255

0000163e <.Loc.86>:
    163e:	8e 17       	cp	r24, r30
    1640:	9f 07       	cpc	r25, r31
    1642:	70 f0       	brcs	.+28     	; 0x1660 <.L27>

00001644 <.Loc.87>:
    1644:	82 81       	ldd	r24, Z+2	; 0x02

00001646 <.Loc.88>:
    1646:	82 30       	cpi	r24, 0x02	; 2
    1648:	70 f4       	brcc	.+28     	; 0x1666 <.L28>

0000164a <.Loc.89>:
    164a:	61 81       	ldd	r22, Z+1	; 0x01
    164c:	80 81       	ld	r24, Z
    164e:	0e 94 f0 0d 	call	0x1be0	; 0x1be0 <DIO_enuTogglePinValue>

00001652 <.LVL27>:
    1652:	08 95       	ret

00001654 <.L25>:
    1654:	82 e0       	ldi	r24, 0x02	; 2

00001656 <.LVL29>:
    1656:	90 e0       	ldi	r25, 0x00	; 0
    1658:	08 95       	ret

0000165a <.L26>:
    165a:	84 e0       	ldi	r24, 0x04	; 4
    165c:	90 e0       	ldi	r25, 0x00	; 0
    165e:	08 95       	ret

00001660 <.L27>:
    1660:	84 e0       	ldi	r24, 0x04	; 4
    1662:	90 e0       	ldi	r25, 0x00	; 0
    1664:	08 95       	ret

00001666 <.L28>:
    1666:	84 e0       	ldi	r24, 0x04	; 4
    1668:	90 e0       	ldi	r25, 0x00	; 0

0000166a <.Loc.96>:
    166a:	08 95       	ret

0000166c <SW_enuInit>:
    166c:	ef 92       	push	r14

0000166e <.LCFI0>:
    166e:	ff 92       	push	r15

00001670 <.LCFI1>:
    1670:	1f 93       	push	r17

00001672 <.LCFI2>:
    1672:	cf 93       	push	r28

00001674 <.LCFI3>:
    1674:	df 93       	push	r29

00001676 <.LCFI4>:
    1676:	e8 2e       	mov	r14, r24
    1678:	f9 2e       	mov	r15, r25

0000167a <.LVL1>:
    167a:	e1 14       	cp	r14, r1
    167c:	f1 04       	cpc	r15, r1
    167e:	61 f1       	breq	.+88     	; 0x16d8 <.L5>

00001680 <.Loc.5>:
    1680:	89 ea       	ldi	r24, 0xA9	; 169
    1682:	e8 16       	cp	r14, r24
    1684:	80 e0       	ldi	r24, 0x00	; 0
    1686:	f8 06       	cpc	r15, r24

00001688 <.LVL2>:
    1688:	51 f5       	brne	.+84     	; 0x16de <.L6>

0000168a <.LBB2>:
    168a:	10 e0       	ldi	r17, 0x00	; 0

0000168c <.LBE2>:
    168c:	21 e0       	ldi	r18, 0x01	; 1
    168e:	30 e0       	ldi	r19, 0x00	; 0
    1690:	01 c0       	rjmp	.+2      	; 0x1694 <.L3>

00001692 <.L7>:
    1692:	1f 5f       	subi	r17, 0xFF	; 255

00001694 <.L3>:
    1694:	80 91 ac 00 	lds	r24, 0x00AC	; 0x8000ac <SW_u8NUM>
    1698:	18 17       	cp	r17, r24
    169a:	18 f5       	brcc	.+70     	; 0x16e2 <.L1>

0000169c <.Loc.12>:
    169c:	81 2f       	mov	r24, r17
    169e:	90 e0       	ldi	r25, 0x00	; 0
    16a0:	ec 01       	movw	r28, r24
    16a2:	cc 0f       	add	r28, r28
    16a4:	dd 1f       	adc	r29, r29
    16a6:	c8 0f       	add	r28, r24
    16a8:	d9 1f       	adc	r29, r25
    16aa:	ce 0d       	add	r28, r14
    16ac:	df 1d       	adc	r29, r15

000016ae <.Loc.14>:
    16ae:	40 e0       	ldi	r20, 0x00	; 0
    16b0:	6a 81       	ldd	r22, Y+2	; 0x02
    16b2:	89 81       	ldd	r24, Y+1	; 0x01
    16b4:	0e 94 5c 0d 	call	0x1ab8	; 0x1ab8 <DIO_enuSetPinDirection>

000016b8 <.LVL5>:
    16b8:	28 2f       	mov	r18, r24
    16ba:	39 2f       	mov	r19, r25

000016bc <.LVL6>:
    16bc:	21 15       	cp	r18, r1
    16be:	31 05       	cpc	r19, r1
    16c0:	81 f4       	brne	.+32     	; 0x16e2 <.L1>

000016c2 <.Loc.18>:
    16c2:	48 81       	ld	r20, Y
    16c4:	6a 81       	ldd	r22, Y+2	; 0x02
    16c6:	89 81       	ldd	r24, Y+1	; 0x01
    16c8:	0e 94 94 0d 	call	0x1b28	; 0x1b28 <DIO_enuSetPinValue>

000016cc <.LVL7>:
    16cc:	28 2f       	mov	r18, r24
    16ce:	39 2f       	mov	r19, r25

000016d0 <.LVL8>:
    16d0:	21 15       	cp	r18, r1
    16d2:	31 05       	cpc	r19, r1
    16d4:	f1 f2       	breq	.-68     	; 0x1692 <.L7>
    16d6:	05 c0       	rjmp	.+10     	; 0x16e2 <.L1>

000016d8 <.L5>:
    16d8:	22 e0       	ldi	r18, 0x02	; 2
    16da:	30 e0       	ldi	r19, 0x00	; 0
    16dc:	02 c0       	rjmp	.+4      	; 0x16e2 <.L1>

000016de <.L6>:
    16de:	24 e0       	ldi	r18, 0x04	; 4
    16e0:	30 e0       	ldi	r19, 0x00	; 0

000016e2 <.L1>:
    16e2:	c9 01       	movw	r24, r18
    16e4:	df 91       	pop	r29
    16e6:	cf 91       	pop	r28
    16e8:	1f 91       	pop	r17
    16ea:	ff 90       	pop	r15
    16ec:	ef 90       	pop	r14
    16ee:	08 95       	ret

000016f0 <SW_enuGetState>:
    16f0:	e8 2f       	mov	r30, r24
    16f2:	f9 2f       	mov	r31, r25

000016f4 <.LVL13>:
    16f4:	30 97       	sbiw	r30, 0x00	; 0
    16f6:	e9 f0       	breq	.+58     	; 0x1732 <.L10>

000016f8 <.Loc.32>:
    16f8:	80 e0       	ldi	r24, 0x00	; 0
    16fa:	e9 3a       	cpi	r30, 0xA9	; 169
    16fc:	f8 07       	cpc	r31, r24

000016fe <.LVL14>:
    16fe:	e0 f0       	brcs	.+56     	; 0x1738 <.L11>

00001700 <.Loc.35>:
    1700:	20 91 ac 00 	lds	r18, 0x00AC	; 0x8000ac <SW_u8NUM>
    1704:	21 50       	subi	r18, 0x01	; 1
    1706:	33 0b       	sbc	r19, r19

00001708 <.Loc.36>:
    1708:	c9 01       	movw	r24, r18
    170a:	88 0f       	add	r24, r24
    170c:	99 1f       	adc	r25, r25
    170e:	88 0f       	add	r24, r24
    1710:	99 1f       	adc	r25, r25
    1712:	88 0f       	add	r24, r24
    1714:	99 1f       	adc	r25, r25
    1716:	82 0f       	add	r24, r18
    1718:	93 1f       	adc	r25, r19
    171a:	87 55       	subi	r24, 0x57	; 87
    171c:	9f 4f       	sbci	r25, 0xFF	; 255

0000171e <.Loc.37>:
    171e:	8e 17       	cp	r24, r30
    1720:	9f 07       	cpc	r25, r31
    1722:	68 f0       	brcs	.+26     	; 0x173e <.L12>

00001724 <.Loc.38>:
    1724:	46 2f       	mov	r20, r22
    1726:	57 2f       	mov	r21, r23
    1728:	62 81       	ldd	r22, Z+2	; 0x02

0000172a <.LVL15>:
    172a:	81 81       	ldd	r24, Z+1	; 0x01
    172c:	0e 94 cc 0d 	call	0x1b98	; 0x1b98 <DIO_enuGetPinValue>

00001730 <.LVL16>:
    1730:	08 95       	ret

00001732 <.L10>:
    1732:	82 e0       	ldi	r24, 0x02	; 2

00001734 <.LVL18>:
    1734:	90 e0       	ldi	r25, 0x00	; 0
    1736:	08 95       	ret

00001738 <.L11>:
    1738:	84 e0       	ldi	r24, 0x04	; 4
    173a:	90 e0       	ldi	r25, 0x00	; 0
    173c:	08 95       	ret

0000173e <.L12>:
    173e:	84 e0       	ldi	r24, 0x04	; 4
    1740:	90 e0       	ldi	r25, 0x00	; 0

00001742 <.Loc.46>:
    1742:	08 95       	ret

00001744 <SW_enuSetMode>:
    1744:	e8 2f       	mov	r30, r24
    1746:	f9 2f       	mov	r31, r25

00001748 <.LVL20>:
    1748:	30 97       	sbiw	r30, 0x00	; 0
    174a:	e1 f0       	breq	.+56     	; 0x1784 <.L15>

0000174c <.Loc.52>:
    174c:	80 e0       	ldi	r24, 0x00	; 0
    174e:	e9 3a       	cpi	r30, 0xA9	; 169
    1750:	f8 07       	cpc	r31, r24

00001752 <.LVL21>:
    1752:	d8 f0       	brcs	.+54     	; 0x178a <.L16>

00001754 <.Loc.55>:
    1754:	20 91 ac 00 	lds	r18, 0x00AC	; 0x8000ac <SW_u8NUM>
    1758:	21 50       	subi	r18, 0x01	; 1
    175a:	33 0b       	sbc	r19, r19

0000175c <.Loc.56>:
    175c:	c9 01       	movw	r24, r18
    175e:	88 0f       	add	r24, r24
    1760:	99 1f       	adc	r25, r25
    1762:	88 0f       	add	r24, r24
    1764:	99 1f       	adc	r25, r25
    1766:	88 0f       	add	r24, r24
    1768:	99 1f       	adc	r25, r25
    176a:	82 0f       	add	r24, r18
    176c:	93 1f       	adc	r25, r19
    176e:	87 55       	subi	r24, 0x57	; 87
    1770:	9f 4f       	sbci	r25, 0xFF	; 255

00001772 <.Loc.57>:
    1772:	8e 17       	cp	r24, r30
    1774:	9f 07       	cpc	r25, r31
    1776:	60 f0       	brcs	.+24     	; 0x1790 <.L17>

00001778 <.Loc.58>:
    1778:	46 2f       	mov	r20, r22
    177a:	62 81       	ldd	r22, Z+2	; 0x02

0000177c <.LVL22>:
    177c:	81 81       	ldd	r24, Z+1	; 0x01
    177e:	0e 94 94 0d 	call	0x1b28	; 0x1b28 <DIO_enuSetPinValue>

00001782 <.LVL23>:
    1782:	08 95       	ret

00001784 <.L15>:
    1784:	82 e0       	ldi	r24, 0x02	; 2

00001786 <.LVL25>:
    1786:	90 e0       	ldi	r25, 0x00	; 0
    1788:	08 95       	ret

0000178a <.L16>:
    178a:	84 e0       	ldi	r24, 0x04	; 4
    178c:	90 e0       	ldi	r25, 0x00	; 0
    178e:	08 95       	ret

00001790 <.L17>:
    1790:	84 e0       	ldi	r24, 0x04	; 4
    1792:	90 e0       	ldi	r25, 0x00	; 0

00001794 <.Loc.66>:
    1794:	08 95       	ret

00001796 <TH_enuInit>:
    1796:	0f 93       	push	r16

00001798 <.LCFI0>:
    1798:	1f 93       	push	r17

0000179a <.LCFI1>:
    179a:	cf 93       	push	r28

0000179c <.LCFI2>:
    179c:	08 2f       	mov	r16, r24
    179e:	19 2f       	mov	r17, r25

000017a0 <.LVL1>:
    17a0:	01 15       	cp	r16, r1
    17a2:	11 05       	cpc	r17, r1
    17a4:	e9 f0       	breq	.+58     	; 0x17e0 <.L5>

000017a6 <.Loc.5>:
    17a6:	81 e0       	ldi	r24, 0x01	; 1
    17a8:	06 32       	cpi	r16, 0x26	; 38
    17aa:	18 07       	cpc	r17, r24

000017ac <.LVL2>:
    17ac:	e1 f4       	brne	.+56     	; 0x17e6 <.L6>

000017ae <.LBB2>:
    17ae:	c0 e0       	ldi	r28, 0x00	; 0

000017b0 <.LBE2>:
    17b0:	21 e0       	ldi	r18, 0x01	; 1
    17b2:	30 e0       	ldi	r19, 0x00	; 0

000017b4 <.L3>:
    17b4:	80 91 ad 00 	lds	r24, 0x00AD	; 0x8000ad <TH_u8NUM>
    17b8:	c8 17       	cp	r28, r24
    17ba:	b8 f4       	brcc	.+46     	; 0x17ea <.L1>

000017bc <.Loc.11>:
    17bc:	ec 2f       	mov	r30, r28
    17be:	f0 e0       	ldi	r31, 0x00	; 0
    17c0:	ee 0f       	add	r30, r30
    17c2:	ff 1f       	adc	r31, r31
    17c4:	e0 0f       	add	r30, r16
    17c6:	f1 1f       	adc	r31, r17

000017c8 <.Loc.13>:
    17c8:	40 e0       	ldi	r20, 0x00	; 0
    17ca:	61 81       	ldd	r22, Z+1	; 0x01
    17cc:	83 e0       	ldi	r24, 0x03	; 3
    17ce:	0e 94 5c 0d 	call	0x1ab8	; 0x1ab8 <DIO_enuSetPinDirection>

000017d2 <.LVL4>:
    17d2:	28 2f       	mov	r18, r24
    17d4:	39 2f       	mov	r19, r25

000017d6 <.LVL5>:
    17d6:	21 15       	cp	r18, r1
    17d8:	31 05       	cpc	r19, r1
    17da:	39 f4       	brne	.+14     	; 0x17ea <.L1>

000017dc <.Loc.17>:
    17dc:	cf 5f       	subi	r28, 0xFF	; 255

000017de <.Loc.18>:
    17de:	ea cf       	rjmp	.-44     	; 0x17b4 <.L3>

000017e0 <.L5>:
    17e0:	22 e0       	ldi	r18, 0x02	; 2
    17e2:	30 e0       	ldi	r19, 0x00	; 0
    17e4:	02 c0       	rjmp	.+4      	; 0x17ea <.L1>

000017e6 <.L6>:
    17e6:	24 e0       	ldi	r18, 0x04	; 4
    17e8:	30 e0       	ldi	r19, 0x00	; 0

000017ea <.L1>:
    17ea:	c9 01       	movw	r24, r18
    17ec:	cf 91       	pop	r28
    17ee:	1f 91       	pop	r17
    17f0:	0f 91       	pop	r16
    17f2:	08 95       	ret

000017f4 <TH_enuGetTemp>:
    17f4:	ef 92       	push	r14

000017f6 <.LCFI3>:
    17f6:	ff 92       	push	r15

000017f8 <.LCFI4>:
    17f8:	0f 93       	push	r16

000017fa <.LCFI5>:
    17fa:	1f 93       	push	r17

000017fc <.LCFI6>:
    17fc:	cf 93       	push	r28

000017fe <.LCFI7>:
    17fe:	df 93       	push	r29

00001800 <.LCFI8>:
    1800:	00 d0       	rcall	.+0      	; 0x1802 <L0^A>

00001802 <L0^A>:
    1802:	00 d0       	rcall	.+0      	; 0x1804 <L0^A>

00001804 <L0^A>:
    1804:	cd b7       	in	r28, 0x3d	; 61
    1806:	de b7       	in	r29, 0x3e	; 62

00001808 <.LCFI10>:
    1808:	89 83       	std	Y+1, r24	; 0x01
    180a:	9a 83       	std	Y+2, r25	; 0x02
    180c:	06 2f       	mov	r16, r22
    180e:	17 2f       	mov	r17, r23

00001810 <.LVL11>:
    1810:	29 81       	ldd	r18, Y+1	; 0x01
    1812:	3a 81       	ldd	r19, Y+2	; 0x02
    1814:	21 15       	cp	r18, r1
    1816:	31 05       	cpc	r19, r1
    1818:	09 f4       	brne	.+2      	; 0x181c <.Loc.28>

0000181a <L0^A>:
    181a:	50 c0       	rjmp	.+160    	; 0x18bc <.L10>

0000181c <.Loc.28>:
    181c:	41 e0       	ldi	r20, 0x01	; 1
    181e:	26 32       	cpi	r18, 0x26	; 38
    1820:	34 07       	cpc	r19, r20
    1822:	08 f4       	brcc	.+2      	; 0x1826 <.Loc.30>

00001824 <L0^A>:
    1824:	50 c0       	rjmp	.+160    	; 0x18c6 <.L11>

00001826 <.Loc.30>:
    1826:	80 91 ad 00 	lds	r24, 0x00AD	; 0x8000ad <TH_u8NUM>

0000182a <.LVL12>:
    182a:	81 50       	subi	r24, 0x01	; 1
    182c:	99 0b       	sbc	r25, r25

0000182e <.Loc.32>:
    182e:	88 0f       	add	r24, r24
    1830:	99 1f       	adc	r25, r25
    1832:	88 0f       	add	r24, r24
    1834:	99 1f       	adc	r25, r25
    1836:	8a 5d       	subi	r24, 0xDA	; 218
    1838:	9e 4f       	sbci	r25, 0xFE	; 254

0000183a <.Loc.33>:
    183a:	82 17       	cp	r24, r18
    183c:	93 07       	cpc	r25, r19
    183e:	08 f4       	brcc	.+2      	; 0x1842 <.Loc.34>

00001840 <L0^A>:
    1840:	47 c0       	rjmp	.+142    	; 0x18d0 <.L12>

00001842 <.Loc.34>:
    1842:	d9 01       	movw	r26, r18
    1844:	11 96       	adiw	r26, 0x01	; 1
    1846:	8c 91       	ld	r24, X
    1848:	0e 94 d5 0c 	call	0x19aa	; 0x19aa <ADC_enuSetChannel>

0000184c <.LVL13>:
    184c:	e8 2e       	mov	r14, r24
    184e:	f9 2e       	mov	r15, r25

00001850 <.LVL14>:
    1850:	e1 14       	cp	r14, r1
    1852:	f1 04       	cpc	r15, r1
    1854:	09 f0       	breq	.+2      	; 0x1858 <.Loc.39>

00001856 <L0^A>:
    1856:	40 c0       	rjmp	.+128    	; 0x18d8 <.L7>

00001858 <.Loc.39>:
    1858:	0e 94 e1 0c 	call	0x19c2	; 0x19c2 <ADC_voidStartOneConversion>

0000185c <.LVL15>:
    185c:	0e 94 ea 0c 	call	0x19d4	; 0x19d4 <ADC_u16GetValuePolling>

00001860 <.LVL16>:
    1860:	28 2f       	mov	r18, r24
    1862:	39 2f       	mov	r19, r25

00001864 <.LVL17>:
    1864:	e9 81       	ldd	r30, Y+1	; 0x01
    1866:	fa 81       	ldd	r31, Y+2	; 0x02
    1868:	80 81       	ld	r24, Z

0000186a <.Loc.44>:
    186a:	81 30       	cpi	r24, 0x01	; 1
    186c:	01 f1       	breq	.+64     	; 0x18ae <.L13>

0000186e <.L9>:
    186e:	c9 01       	movw	r24, r18
    1870:	a0 e0       	ldi	r26, 0x00	; 0
    1872:	b0 e0       	ldi	r27, 0x00	; 0
    1874:	89 83       	std	Y+1, r24	; 0x01
    1876:	9a 83       	std	Y+2, r25	; 0x02
    1878:	ab 83       	std	Y+3, r26	; 0x03
    187a:	bc 83       	std	Y+4, r27	; 0x04
    187c:	bc 01       	movw	r22, r24
    187e:	cd 01       	movw	r24, r26
    1880:	0e 94 8b 1a 	call	0x3516	; 0x3516 <__floatunsisf>

00001884 <.LVL18>:
    1884:	23 e2       	ldi	r18, 0x23	; 35
    1886:	3b ed       	ldi	r19, 0xDB	; 219
    1888:	49 ef       	ldi	r20, 0xF9	; 249
    188a:	5e e3       	ldi	r21, 0x3E	; 62
    188c:	69 83       	std	Y+1, r22	; 0x01
    188e:	7a 83       	std	Y+2, r23	; 0x02
    1890:	8b 83       	std	Y+3, r24	; 0x03
    1892:	9c 83       	std	Y+4, r25	; 0x04
    1894:	69 81       	ldd	r22, Y+1	; 0x01
    1896:	7a 81       	ldd	r23, Y+2	; 0x02
    1898:	8b 81       	ldd	r24, Y+3	; 0x03
    189a:	9c 81       	ldd	r25, Y+4	; 0x04
    189c:	0e 94 19 1b 	call	0x3632	; 0x3632 <__mulsf3>

000018a0 <.LVL19>:
    18a0:	d8 01       	movw	r26, r16
    18a2:	6d 93       	st	X+, r22
    18a4:	7d 93       	st	X+, r23
    18a6:	8d 93       	st	X+, r24
    18a8:	9c 93       	st	X, r25
    18aa:	13 97       	sbiw	r26, 0x03	; 3

000018ac <.Loc.48>:
    18ac:	15 c0       	rjmp	.+42     	; 0x18d8 <.L7>

000018ae <.L13>:
    18ae:	8f ef       	ldi	r24, 0xFF	; 255
    18b0:	93 e0       	ldi	r25, 0x03	; 3
    18b2:	ac 01       	movw	r20, r24
    18b4:	42 1b       	sub	r20, r18
    18b6:	53 0b       	sbc	r21, r19
    18b8:	9a 01       	movw	r18, r20

000018ba <.Loc.52>:
    18ba:	d9 cf       	rjmp	.-78     	; 0x186e <.L9>

000018bc <.L10>:
    18bc:	68 94       	set
    18be:	ee 24       	eor	r14, r14
    18c0:	e1 f8       	bld	r14, 1
    18c2:	f1 2c       	mov	r15, r1
    18c4:	09 c0       	rjmp	.+18     	; 0x18d8 <.L7>

000018c6 <.L11>:
    18c6:	68 94       	set
    18c8:	ee 24       	eor	r14, r14
    18ca:	e2 f8       	bld	r14, 2
    18cc:	f1 2c       	mov	r15, r1
    18ce:	04 c0       	rjmp	.+8      	; 0x18d8 <.L7>

000018d0 <.L12>:
    18d0:	68 94       	set
    18d2:	ee 24       	eor	r14, r14
    18d4:	e2 f8       	bld	r14, 2
    18d6:	f1 2c       	mov	r15, r1

000018d8 <.L7>:
    18d8:	c7 01       	movw	r24, r14
    18da:	0f 90       	pop	r0
    18dc:	0f 90       	pop	r0
    18de:	0f 90       	pop	r0
    18e0:	0f 90       	pop	r0
    18e2:	df 91       	pop	r29
    18e4:	cf 91       	pop	r28
    18e6:	1f 91       	pop	r17
    18e8:	0f 91       	pop	r16
    18ea:	ff 90       	pop	r15
    18ec:	ef 90       	pop	r14
    18ee:	08 95       	ret

000018f0 <__vector_16>:
    18f0:	1f 92       	push	r1

000018f2 <.LCFI0>:
    18f2:	0f 92       	push	r0

000018f4 <.LCFI1>:
    18f4:	0f b6       	in	r0, 0x3f	; 63
    18f6:	0f 92       	push	r0
    18f8:	11 24       	eor	r1, r1
    18fa:	2f 93       	push	r18

000018fc <.LCFI2>:
    18fc:	3f 93       	push	r19

000018fe <.LCFI3>:
    18fe:	4f 93       	push	r20

00001900 <.LCFI4>:
    1900:	5f 93       	push	r21

00001902 <.LCFI5>:
    1902:	6f 93       	push	r22

00001904 <.LCFI6>:
    1904:	7f 93       	push	r23

00001906 <.LCFI7>:
    1906:	8f 93       	push	r24

00001908 <.LCFI8>:
    1908:	9f 93       	push	r25

0000190a <.LCFI9>:
    190a:	af 93       	push	r26

0000190c <.LCFI10>:
    190c:	bf 93       	push	r27

0000190e <.LCFI11>:
    190e:	ef 93       	push	r30

00001910 <.LCFI12>:
    1910:	ff 93       	push	r31

00001912 <.LCFI13>:
    1912:	e0 91 28 01 	lds	r30, 0x0128	; 0x800128 <ADC_CallBack>
    1916:	f0 91 29 01 	lds	r31, 0x0129	; 0x800129 <ADC_CallBack+0x1>

0000191a <.Loc.3>:
    191a:	30 97       	sbiw	r30, 0x00	; 0
    191c:	09 f0       	breq	.+2      	; 0x1920 <.L1>

0000191e <.Loc.4>:
    191e:	09 95       	icall

00001920 <.L1>:
    1920:	ff 91       	pop	r31
    1922:	ef 91       	pop	r30
    1924:	bf 91       	pop	r27
    1926:	af 91       	pop	r26
    1928:	9f 91       	pop	r25
    192a:	8f 91       	pop	r24
    192c:	7f 91       	pop	r23
    192e:	6f 91       	pop	r22
    1930:	5f 91       	pop	r21
    1932:	4f 91       	pop	r20
    1934:	3f 91       	pop	r19
    1936:	2f 91       	pop	r18
    1938:	0f 90       	pop	r0
    193a:	0f be       	out	0x3f, r0	; 63
    193c:	0f 90       	pop	r0
    193e:	1f 90       	pop	r1
    1940:	18 95       	reti

00001942 <ADC_enuInit>:
    1942:	88 30       	cpi	r24, 0x08	; 8
    1944:	88 f4       	brcc	.+34     	; 0x1968 <.L5>

00001946 <.Loc.9>:
    1946:	96 2f       	mov	r25, r22
    1948:	9f 7d       	andi	r25, 0xDF	; 223
    194a:	91 11       	cpse	r25, r1
    194c:	10 c0       	rjmp	.+32     	; 0x196e <.L6>

0000194e <.Loc.10>:
    194e:	94 2f       	mov	r25, r20
    1950:	9f 73       	andi	r25, 0x3F	; 63
    1952:	91 11       	cpse	r25, r1
    1954:	0f c0       	rjmp	.+30     	; 0x1974 <.L7>

00001956 <.Loc.11>:
    1956:	40 38       	cpi	r20, 0x80	; 128
    1958:	81 f0       	breq	.+32     	; 0x197a <.L8>

0000195a <.Loc.12>:
    195a:	64 2b       	or	r22, r20

0000195c <.LVL2>:
    195c:	67 b9       	out	0x07, r22	; 7

0000195e <.Loc.15>:
    195e:	80 68       	ori	r24, 0x80	; 128

00001960 <.LVL3>:
    1960:	86 b9       	out	0x06, r24	; 6

00001962 <.Loc.18>:
    1962:	80 e0       	ldi	r24, 0x00	; 0
    1964:	90 e0       	ldi	r25, 0x00	; 0
    1966:	08 95       	ret

00001968 <.L5>:
    1968:	84 e0       	ldi	r24, 0x04	; 4
    196a:	90 e0       	ldi	r25, 0x00	; 0

0000196c <.LVL5>:
    196c:	08 95       	ret

0000196e <.L6>:
    196e:	84 e0       	ldi	r24, 0x04	; 4
    1970:	90 e0       	ldi	r25, 0x00	; 0

00001972 <.LVL7>:
    1972:	08 95       	ret

00001974 <.L7>:
    1974:	84 e0       	ldi	r24, 0x04	; 4
    1976:	90 e0       	ldi	r25, 0x00	; 0

00001978 <.LVL9>:
    1978:	08 95       	ret

0000197a <.L8>:
    197a:	84 e0       	ldi	r24, 0x04	; 4
    197c:	90 e0       	ldi	r25, 0x00	; 0

0000197e <.LVL11>:
    197e:	08 95       	ret

00001980 <ADC_enuSetTrigger>:
    1980:	98 2f       	mov	r25, r24
    1982:	9f 71       	andi	r25, 0x1F	; 31
    1984:	91 11       	cpse	r25, r1
    1986:	0a c0       	rjmp	.+20     	; 0x199c <.L11>

00001988 <.Loc.31>:
    1988:	90 b7       	in	r25, 0x30	; 48
    198a:	9f 70       	andi	r25, 0x0F	; 15
    198c:	89 2b       	or	r24, r25

0000198e <.LVL13>:
    198e:	80 bf       	out	0x30, r24	; 48

00001990 <.Loc.34>:
    1990:	86 b1       	in	r24, 0x06	; 6
    1992:	80 62       	ori	r24, 0x20	; 32
    1994:	86 b9       	out	0x06, r24	; 6

00001996 <.Loc.35>:
    1996:	80 e0       	ldi	r24, 0x00	; 0
    1998:	90 e0       	ldi	r25, 0x00	; 0
    199a:	08 95       	ret

0000199c <.L11>:
    199c:	84 e0       	ldi	r24, 0x04	; 4
    199e:	90 e0       	ldi	r25, 0x00	; 0

000019a0 <.LVL15>:
    19a0:	08 95       	ret

000019a2 <ADC_voidDisableTrigger>:
    19a2:	86 b1       	in	r24, 0x06	; 6
    19a4:	8f 7d       	andi	r24, 0xDF	; 223
    19a6:	86 b9       	out	0x06, r24	; 6

000019a8 <.Loc.41>:
    19a8:	08 95       	ret

000019aa <ADC_enuSetChannel>:
    19aa:	82 33       	cpi	r24, 0x32	; 50
    19ac:	38 f4       	brcc	.+14     	; 0x19bc <.L15>

000019ae <.Loc.45>:
    19ae:	97 b1       	in	r25, 0x07	; 7
    19b0:	90 7e       	andi	r25, 0xE0	; 224
    19b2:	89 2b       	or	r24, r25

000019b4 <.LVL17>:
    19b4:	87 b9       	out	0x07, r24	; 7

000019b6 <.Loc.48>:
    19b6:	80 e0       	ldi	r24, 0x00	; 0
    19b8:	90 e0       	ldi	r25, 0x00	; 0
    19ba:	08 95       	ret

000019bc <.L15>:
    19bc:	84 e0       	ldi	r24, 0x04	; 4
    19be:	90 e0       	ldi	r25, 0x00	; 0

000019c0 <.LVL19>:
    19c0:	08 95       	ret

000019c2 <ADC_voidStartOneConversion>:
    19c2:	86 b1       	in	r24, 0x06	; 6
    19c4:	80 64       	ori	r24, 0x40	; 64
    19c6:	86 b9       	out	0x06, r24	; 6

000019c8 <.Loc.54>:
    19c8:	08 95       	ret

000019ca <ADC_u16GetValue>:
    19ca:	84 b1       	in	r24, 0x04	; 4
    19cc:	95 b1       	in	r25, 0x05	; 5

000019ce <.Loc.58>:
    19ce:	08 95       	ret

000019d0 <ADC_u8GetHighValue>:
    19d0:	85 b1       	in	r24, 0x05	; 5

000019d2 <.Loc.62>:
    19d2:	08 95       	ret

000019d4 <ADC_u16GetValuePolling>:
    19d4:	36 99       	sbic	0x06, 6	; 6
    19d6:	fe cf       	rjmp	.-4      	; 0x19d4 <ADC_u16GetValuePolling>

000019d8 <.Loc.65>:
    19d8:	84 b1       	in	r24, 0x04	; 4
    19da:	95 b1       	in	r25, 0x05	; 5

000019dc <.Loc.67>:
    19dc:	08 95       	ret

000019de <ADC_u8GetHighValuePolling>:
    19de:	36 99       	sbic	0x06, 6	; 6
    19e0:	fe cf       	rjmp	.-4      	; 0x19de <ADC_u8GetHighValuePolling>

000019e2 <.Loc.70>:
    19e2:	85 b1       	in	r24, 0x05	; 5

000019e4 <.Loc.72>:
    19e4:	08 95       	ret

000019e6 <ADC_enuSetCallBack>:
    19e6:	28 2f       	mov	r18, r24
    19e8:	39 2f       	mov	r19, r25

000019ea <.Loc.75>:
    19ea:	21 15       	cp	r18, r1
    19ec:	31 05       	cpc	r19, r1
    19ee:	39 f0       	breq	.+14     	; 0x19fe <.L25>

000019f0 <.Loc.77>:
    19f0:	30 93 29 01 	sts	0x0129, r19	; 0x800129 <ADC_CallBack+0x1>
    19f4:	20 93 28 01 	sts	0x0128, r18	; 0x800128 <ADC_CallBack>

000019f8 <.Loc.79>:
    19f8:	80 e0       	ldi	r24, 0x00	; 0
    19fa:	90 e0       	ldi	r25, 0x00	; 0

000019fc <.LVL21>:
    19fc:	08 95       	ret

000019fe <.L25>:
    19fe:	82 e0       	ldi	r24, 0x02	; 2
    1a00:	90 e0       	ldi	r25, 0x00	; 0

00001a02 <.LVL23>:
    1a02:	08 95       	ret

00001a04 <ADC_voidEnableInterrupt>:
    1a04:	86 b1       	in	r24, 0x06	; 6
    1a06:	88 60       	ori	r24, 0x08	; 8
    1a08:	86 b9       	out	0x06, r24	; 6

00001a0a <.Loc.86>:
    1a0a:	08 95       	ret

00001a0c <ADC_voidDisableInterrupt>:
    1a0c:	86 b1       	in	r24, 0x06	; 6
    1a0e:	87 7f       	andi	r24, 0xF7	; 247
    1a10:	86 b9       	out	0x06, r24	; 6

00001a12 <.Loc.89>:
    1a12:	08 95       	ret

00001a14 <ADC_voidHultADC>:
    1a14:	16 b8       	out	0x06, r1	; 6

00001a16 <.Loc.93>:
    1a16:	08 95       	ret

00001a18 <DIO_voidInit>:
    1a18:	1a ba       	out	0x1a, r1	; 26

00001a1a <.Loc.3>:
    1a1a:	17 ba       	out	0x17, r1	; 23

00001a1c <.Loc.5>:
    1a1c:	14 ba       	out	0x14, r1	; 20

00001a1e <.Loc.7>:
    1a1e:	11 ba       	out	0x11, r1	; 17

00001a20 <.Loc.10>:
    1a20:	1b ba       	out	0x1b, r1	; 27

00001a22 <.Loc.11>:
    1a22:	18 ba       	out	0x18, r1	; 24

00001a24 <.Loc.13>:
    1a24:	15 ba       	out	0x15, r1	; 21

00001a26 <.Loc.15>:
    1a26:	12 ba       	out	0x12, r1	; 18

00001a28 <.Loc.17>:
    1a28:	08 95       	ret

00001a2a <DIO_enuSetPortDirection>:
    1a2a:	84 30       	cpi	r24, 0x04	; 4
    1a2c:	50 f4       	brcc	.+20     	; 0x1a42 <.L4>

00001a2e <.Loc.21>:
    1a2e:	90 e0       	ldi	r25, 0x00	; 0
    1a30:	fc 01       	movw	r30, r24
    1a32:	ee 0f       	add	r30, r30
    1a34:	ff 1f       	adc	r31, r31
    1a36:	e8 0f       	add	r30, r24
    1a38:	f9 1f       	adc	r31, r25

00001a3a <.Loc.22>:
    1a3a:	61 ab       	std	Z+49, r22	; 0x31

00001a3c <.Loc.23>:
    1a3c:	80 e0       	ldi	r24, 0x00	; 0
    1a3e:	90 e0       	ldi	r25, 0x00	; 0

00001a40 <.LVL1>:
    1a40:	08 95       	ret

00001a42 <.L4>:
    1a42:	84 e0       	ldi	r24, 0x04	; 4
    1a44:	90 e0       	ldi	r25, 0x00	; 0

00001a46 <.LVL3>:
    1a46:	08 95       	ret

00001a48 <DIO_enuSetPortValue>:
    1a48:	84 30       	cpi	r24, 0x04	; 4
    1a4a:	50 f4       	brcc	.+20     	; 0x1a60 <.L7>

00001a4c <.Loc.31>:
    1a4c:	90 e0       	ldi	r25, 0x00	; 0
    1a4e:	fc 01       	movw	r30, r24
    1a50:	ee 0f       	add	r30, r30
    1a52:	ff 1f       	adc	r31, r31
    1a54:	e8 0f       	add	r30, r24
    1a56:	f9 1f       	adc	r31, r25

00001a58 <.Loc.32>:
    1a58:	62 ab       	std	Z+50, r22	; 0x32

00001a5a <.Loc.33>:
    1a5a:	80 e0       	ldi	r24, 0x00	; 0
    1a5c:	90 e0       	ldi	r25, 0x00	; 0

00001a5e <.LVL5>:
    1a5e:	08 95       	ret

00001a60 <.L7>:
    1a60:	84 e0       	ldi	r24, 0x04	; 4
    1a62:	90 e0       	ldi	r25, 0x00	; 0

00001a64 <.LVL7>:
    1a64:	08 95       	ret

00001a66 <DIO_enuGetPortValue>:
    1a66:	e6 2f       	mov	r30, r22
    1a68:	f7 2f       	mov	r31, r23

00001a6a <.Loc.40>:
    1a6a:	84 30       	cpi	r24, 0x04	; 4
    1a6c:	70 f4       	brcc	.+28     	; 0x1a8a <.L10>

00001a6e <.Loc.42>:
    1a6e:	30 97       	sbiw	r30, 0x00	; 0
    1a70:	79 f0       	breq	.+30     	; 0x1a90 <.L11>

00001a72 <.Loc.44>:
    1a72:	90 e0       	ldi	r25, 0x00	; 0
    1a74:	dc 01       	movw	r26, r24
    1a76:	aa 0f       	add	r26, r26
    1a78:	bb 1f       	adc	r27, r27
    1a7a:	a8 0f       	add	r26, r24
    1a7c:	b9 1f       	adc	r27, r25
    1a7e:	d0 96       	adiw	r26, 0x30	; 48
    1a80:	8c 91       	ld	r24, X

00001a82 <.LVL9>:
    1a82:	80 83       	st	Z, r24

00001a84 <.Loc.47>:
    1a84:	80 e0       	ldi	r24, 0x00	; 0
    1a86:	90 e0       	ldi	r25, 0x00	; 0
    1a88:	08 95       	ret

00001a8a <.L10>:
    1a8a:	84 e0       	ldi	r24, 0x04	; 4
    1a8c:	90 e0       	ldi	r25, 0x00	; 0

00001a8e <.LVL11>:
    1a8e:	08 95       	ret

00001a90 <.L11>:
    1a90:	82 e0       	ldi	r24, 0x02	; 2
    1a92:	90 e0       	ldi	r25, 0x00	; 0

00001a94 <.LVL13>:
    1a94:	08 95       	ret

00001a96 <DIO_enuTogglePortValue>:
    1a96:	84 30       	cpi	r24, 0x04	; 4
    1a98:	60 f4       	brcc	.+24     	; 0x1ab2 <.L14>

00001a9a <.Loc.56>:
    1a9a:	90 e0       	ldi	r25, 0x00	; 0
    1a9c:	fc 01       	movw	r30, r24
    1a9e:	ee 0f       	add	r30, r30
    1aa0:	ff 1f       	adc	r31, r31
    1aa2:	e8 0f       	add	r30, r24
    1aa4:	f9 1f       	adc	r31, r25
    1aa6:	82 a9       	ldd	r24, Z+50	; 0x32

00001aa8 <.LVL15>:
    1aa8:	80 95       	com	r24
    1aaa:	82 ab       	std	Z+50, r24	; 0x32

00001aac <.Loc.59>:
    1aac:	80 e0       	ldi	r24, 0x00	; 0
    1aae:	90 e0       	ldi	r25, 0x00	; 0
    1ab0:	08 95       	ret

00001ab2 <.L14>:
    1ab2:	84 e0       	ldi	r24, 0x04	; 4
    1ab4:	90 e0       	ldi	r25, 0x00	; 0

00001ab6 <.LVL17>:
    1ab6:	08 95       	ret

00001ab8 <DIO_enuSetPinDirection>:
    1ab8:	84 30       	cpi	r24, 0x04	; 4
    1aba:	68 f5       	brcc	.+90     	; 0x1b16 <.L18>

00001abc <.Loc.66>:
    1abc:	68 30       	cpi	r22, 0x08	; 8
    1abe:	70 f5       	brcc	.+92     	; 0x1b1c <.L19>

00001ac0 <.Loc.67>:
    1ac0:	42 30       	cpi	r20, 0x02	; 2
    1ac2:	78 f5       	brcc	.+94     	; 0x1b22 <.L20>

00001ac4 <.Loc.68>:
    1ac4:	41 30       	cpi	r20, 0x01	; 1
    1ac6:	a1 f0       	breq	.+40     	; 0x1af0 <.L21>

00001ac8 <.Loc.70>:
    1ac8:	90 e0       	ldi	r25, 0x00	; 0
    1aca:	fc 01       	movw	r30, r24
    1acc:	ee 0f       	add	r30, r30
    1ace:	ff 1f       	adc	r31, r31
    1ad0:	e8 0f       	add	r30, r24
    1ad2:	f9 1f       	adc	r31, r25
    1ad4:	21 a9       	ldd	r18, Z+49	; 0x31
    1ad6:	81 e0       	ldi	r24, 0x01	; 1
    1ad8:	90 e0       	ldi	r25, 0x00	; 0

00001ada <.LVL19>:
    1ada:	02 c0       	rjmp	.+4      	; 0x1ae0 <.L2^B1>

00001adc <.L1^B1>:
    1adc:	88 0f       	add	r24, r24
    1ade:	99 1f       	adc	r25, r25

00001ae0 <.L2^B1>:
    1ae0:	6a 95       	dec	r22
    1ae2:	e2 f7       	brpl	.-8      	; 0x1adc <.L1^B1>
    1ae4:	80 95       	com	r24
    1ae6:	82 23       	and	r24, r18
    1ae8:	81 ab       	std	Z+49, r24	; 0x31

00001aea <.Loc.72>:
    1aea:	80 e0       	ldi	r24, 0x00	; 0
    1aec:	90 e0       	ldi	r25, 0x00	; 0
    1aee:	08 95       	ret

00001af0 <.L21>:
    1af0:	90 e0       	ldi	r25, 0x00	; 0
    1af2:	fc 01       	movw	r30, r24
    1af4:	ee 0f       	add	r30, r30
    1af6:	ff 1f       	adc	r31, r31
    1af8:	e8 0f       	add	r30, r24
    1afa:	f9 1f       	adc	r31, r25
    1afc:	81 a9       	ldd	r24, Z+49	; 0x31

00001afe <.LVL21>:
    1afe:	21 e0       	ldi	r18, 0x01	; 1
    1b00:	30 e0       	ldi	r19, 0x00	; 0
    1b02:	02 c0       	rjmp	.+4      	; 0x1b08 <.L2^B2>

00001b04 <.L1^B2>:
    1b04:	22 0f       	add	r18, r18
    1b06:	33 1f       	adc	r19, r19

00001b08 <.L2^B2>:
    1b08:	6a 95       	dec	r22
    1b0a:	e2 f7       	brpl	.-8      	; 0x1b04 <.L1^B2>
    1b0c:	82 2b       	or	r24, r18
    1b0e:	81 ab       	std	Z+49, r24	; 0x31

00001b10 <.Loc.75>:
    1b10:	80 e0       	ldi	r24, 0x00	; 0
    1b12:	90 e0       	ldi	r25, 0x00	; 0
    1b14:	08 95       	ret

00001b16 <.L18>:
    1b16:	84 e0       	ldi	r24, 0x04	; 4
    1b18:	90 e0       	ldi	r25, 0x00	; 0

00001b1a <.LVL23>:
    1b1a:	08 95       	ret

00001b1c <.L19>:
    1b1c:	84 e0       	ldi	r24, 0x04	; 4
    1b1e:	90 e0       	ldi	r25, 0x00	; 0

00001b20 <.LVL25>:
    1b20:	08 95       	ret

00001b22 <.L20>:
    1b22:	84 e0       	ldi	r24, 0x04	; 4
    1b24:	90 e0       	ldi	r25, 0x00	; 0

00001b26 <.LVL27>:
    1b26:	08 95       	ret

00001b28 <DIO_enuSetPinValue>:
    1b28:	84 30       	cpi	r24, 0x04	; 4
    1b2a:	68 f5       	brcc	.+90     	; 0x1b86 <.L25>

00001b2c <.Loc.85>:
    1b2c:	68 30       	cpi	r22, 0x08	; 8
    1b2e:	70 f5       	brcc	.+92     	; 0x1b8c <.L26>

00001b30 <.Loc.86>:
    1b30:	42 30       	cpi	r20, 0x02	; 2
    1b32:	78 f5       	brcc	.+94     	; 0x1b92 <.L27>

00001b34 <.Loc.87>:
    1b34:	41 30       	cpi	r20, 0x01	; 1
    1b36:	a1 f0       	breq	.+40     	; 0x1b60 <.L28>

00001b38 <.Loc.89>:
    1b38:	90 e0       	ldi	r25, 0x00	; 0
    1b3a:	fc 01       	movw	r30, r24
    1b3c:	ee 0f       	add	r30, r30
    1b3e:	ff 1f       	adc	r31, r31
    1b40:	e8 0f       	add	r30, r24
    1b42:	f9 1f       	adc	r31, r25
    1b44:	22 a9       	ldd	r18, Z+50	; 0x32
    1b46:	81 e0       	ldi	r24, 0x01	; 1
    1b48:	90 e0       	ldi	r25, 0x00	; 0

00001b4a <.LVL29>:
    1b4a:	02 c0       	rjmp	.+4      	; 0x1b50 <.L2^B3>

00001b4c <.L1^B3>:
    1b4c:	88 0f       	add	r24, r24
    1b4e:	99 1f       	adc	r25, r25

00001b50 <.L2^B3>:
    1b50:	6a 95       	dec	r22
    1b52:	e2 f7       	brpl	.-8      	; 0x1b4c <.L1^B3>
    1b54:	80 95       	com	r24
    1b56:	82 23       	and	r24, r18
    1b58:	82 ab       	std	Z+50, r24	; 0x32

00001b5a <.Loc.91>:
    1b5a:	80 e0       	ldi	r24, 0x00	; 0
    1b5c:	90 e0       	ldi	r25, 0x00	; 0
    1b5e:	08 95       	ret

00001b60 <.L28>:
    1b60:	90 e0       	ldi	r25, 0x00	; 0
    1b62:	fc 01       	movw	r30, r24
    1b64:	ee 0f       	add	r30, r30
    1b66:	ff 1f       	adc	r31, r31
    1b68:	e8 0f       	add	r30, r24
    1b6a:	f9 1f       	adc	r31, r25
    1b6c:	82 a9       	ldd	r24, Z+50	; 0x32

00001b6e <.LVL31>:
    1b6e:	21 e0       	ldi	r18, 0x01	; 1
    1b70:	30 e0       	ldi	r19, 0x00	; 0
    1b72:	02 c0       	rjmp	.+4      	; 0x1b78 <.L2^B4>

00001b74 <.L1^B4>:
    1b74:	22 0f       	add	r18, r18
    1b76:	33 1f       	adc	r19, r19

00001b78 <.L2^B4>:
    1b78:	6a 95       	dec	r22
    1b7a:	e2 f7       	brpl	.-8      	; 0x1b74 <.L1^B4>
    1b7c:	82 2b       	or	r24, r18
    1b7e:	82 ab       	std	Z+50, r24	; 0x32

00001b80 <.Loc.94>:
    1b80:	80 e0       	ldi	r24, 0x00	; 0
    1b82:	90 e0       	ldi	r25, 0x00	; 0
    1b84:	08 95       	ret

00001b86 <.L25>:
    1b86:	84 e0       	ldi	r24, 0x04	; 4
    1b88:	90 e0       	ldi	r25, 0x00	; 0

00001b8a <.LVL33>:
    1b8a:	08 95       	ret

00001b8c <.L26>:
    1b8c:	84 e0       	ldi	r24, 0x04	; 4
    1b8e:	90 e0       	ldi	r25, 0x00	; 0

00001b90 <.LVL35>:
    1b90:	08 95       	ret

00001b92 <.L27>:
    1b92:	84 e0       	ldi	r24, 0x04	; 4
    1b94:	90 e0       	ldi	r25, 0x00	; 0

00001b96 <.LVL37>:
    1b96:	08 95       	ret

00001b98 <DIO_enuGetPinValue>:
    1b98:	e4 2f       	mov	r30, r20
    1b9a:	f5 2f       	mov	r31, r21

00001b9c <.Loc.103>:
    1b9c:	84 30       	cpi	r24, 0x04	; 4
    1b9e:	b8 f4       	brcc	.+46     	; 0x1bce <.L31>

00001ba0 <.Loc.105>:
    1ba0:	68 30       	cpi	r22, 0x08	; 8
    1ba2:	c0 f4       	brcc	.+48     	; 0x1bd4 <.L32>

00001ba4 <.Loc.106>:
    1ba4:	30 97       	sbiw	r30, 0x00	; 0
    1ba6:	c9 f0       	breq	.+50     	; 0x1bda <.L33>

00001ba8 <.Loc.108>:
    1ba8:	90 e0       	ldi	r25, 0x00	; 0
    1baa:	dc 01       	movw	r26, r24
    1bac:	aa 0f       	add	r26, r26
    1bae:	bb 1f       	adc	r27, r27
    1bb0:	a8 0f       	add	r26, r24
    1bb2:	b9 1f       	adc	r27, r25
    1bb4:	d0 96       	adiw	r26, 0x30	; 48
    1bb6:	8c 91       	ld	r24, X

00001bb8 <.LVL39>:
    1bb8:	90 e0       	ldi	r25, 0x00	; 0
    1bba:	02 c0       	rjmp	.+4      	; 0x1bc0 <.L2^B5>

00001bbc <.L1^B5>:
    1bbc:	95 95       	asr	r25
    1bbe:	87 95       	ror	r24

00001bc0 <.L2^B5>:
    1bc0:	6a 95       	dec	r22
    1bc2:	e2 f7       	brpl	.-8      	; 0x1bbc <.L1^B5>
    1bc4:	81 70       	andi	r24, 0x01	; 1

00001bc6 <.Loc.111>:
    1bc6:	80 83       	st	Z, r24

00001bc8 <.Loc.112>:
    1bc8:	80 e0       	ldi	r24, 0x00	; 0
    1bca:	90 e0       	ldi	r25, 0x00	; 0
    1bcc:	08 95       	ret

00001bce <.L31>:
    1bce:	84 e0       	ldi	r24, 0x04	; 4
    1bd0:	90 e0       	ldi	r25, 0x00	; 0

00001bd2 <.LVL41>:
    1bd2:	08 95       	ret

00001bd4 <.L32>:
    1bd4:	84 e0       	ldi	r24, 0x04	; 4
    1bd6:	90 e0       	ldi	r25, 0x00	; 0

00001bd8 <.LVL43>:
    1bd8:	08 95       	ret

00001bda <.L33>:
    1bda:	82 e0       	ldi	r24, 0x02	; 2
    1bdc:	90 e0       	ldi	r25, 0x00	; 0

00001bde <.LVL45>:
    1bde:	08 95       	ret

00001be0 <DIO_enuTogglePinValue>:
    1be0:	84 30       	cpi	r24, 0x04	; 4
    1be2:	a8 f4       	brcc	.+42     	; 0x1c0e <.L36>

00001be4 <.Loc.123>:
    1be4:	68 30       	cpi	r22, 0x08	; 8
    1be6:	b0 f4       	brcc	.+44     	; 0x1c14 <.L37>

00001be8 <.Loc.124>:
    1be8:	90 e0       	ldi	r25, 0x00	; 0
    1bea:	fc 01       	movw	r30, r24
    1bec:	ee 0f       	add	r30, r30
    1bee:	ff 1f       	adc	r31, r31
    1bf0:	e8 0f       	add	r30, r24
    1bf2:	f9 1f       	adc	r31, r25
    1bf4:	82 a9       	ldd	r24, Z+50	; 0x32

00001bf6 <.LVL47>:
    1bf6:	21 e0       	ldi	r18, 0x01	; 1
    1bf8:	30 e0       	ldi	r19, 0x00	; 0
    1bfa:	02 c0       	rjmp	.+4      	; 0x1c00 <.L2^B6>

00001bfc <.L1^B6>:
    1bfc:	22 0f       	add	r18, r18
    1bfe:	33 1f       	adc	r19, r19

00001c00 <.L2^B6>:
    1c00:	6a 95       	dec	r22
    1c02:	e2 f7       	brpl	.-8      	; 0x1bfc <.L1^B6>
    1c04:	82 27       	eor	r24, r18
    1c06:	82 ab       	std	Z+50, r24	; 0x32

00001c08 <.Loc.126>:
    1c08:	80 e0       	ldi	r24, 0x00	; 0
    1c0a:	90 e0       	ldi	r25, 0x00	; 0
    1c0c:	08 95       	ret

00001c0e <.L36>:
    1c0e:	84 e0       	ldi	r24, 0x04	; 4
    1c10:	90 e0       	ldi	r25, 0x00	; 0

00001c12 <.LVL49>:
    1c12:	08 95       	ret

00001c14 <.L37>:
    1c14:	84 e0       	ldi	r24, 0x04	; 4
    1c16:	90 e0       	ldi	r25, 0x00	; 0

00001c18 <.LVL51>:
    1c18:	08 95       	ret

00001c1a <__vector_1>:
    1c1a:	1f 92       	push	r1

00001c1c <.LCFI0>:
    1c1c:	0f 92       	push	r0

00001c1e <.LCFI1>:
    1c1e:	0f b6       	in	r0, 0x3f	; 63
    1c20:	0f 92       	push	r0
    1c22:	11 24       	eor	r1, r1
    1c24:	2f 93       	push	r18

00001c26 <.LCFI2>:
    1c26:	3f 93       	push	r19

00001c28 <.LCFI3>:
    1c28:	4f 93       	push	r20

00001c2a <.LCFI4>:
    1c2a:	5f 93       	push	r21

00001c2c <.LCFI5>:
    1c2c:	6f 93       	push	r22

00001c2e <.LCFI6>:
    1c2e:	7f 93       	push	r23

00001c30 <.LCFI7>:
    1c30:	8f 93       	push	r24

00001c32 <.LCFI8>:
    1c32:	9f 93       	push	r25

00001c34 <.LCFI9>:
    1c34:	af 93       	push	r26

00001c36 <.LCFI10>:
    1c36:	bf 93       	push	r27

00001c38 <.LCFI11>:
    1c38:	ef 93       	push	r30

00001c3a <.LCFI12>:
    1c3a:	ff 93       	push	r31

00001c3c <.LCFI13>:
    1c3c:	e0 91 2a 01 	lds	r30, 0x012A	; 0x80012a <EXTI_AFptrCallback>
    1c40:	f0 91 2b 01 	lds	r31, 0x012B	; 0x80012b <EXTI_AFptrCallback+0x1>

00001c44 <.Loc.3>:
    1c44:	30 97       	sbiw	r30, 0x00	; 0
    1c46:	09 f0       	breq	.+2      	; 0x1c4a <.L1>

00001c48 <.Loc.4>:
    1c48:	09 95       	icall

00001c4a <.L1>:
    1c4a:	ff 91       	pop	r31
    1c4c:	ef 91       	pop	r30
    1c4e:	bf 91       	pop	r27
    1c50:	af 91       	pop	r26
    1c52:	9f 91       	pop	r25
    1c54:	8f 91       	pop	r24
    1c56:	7f 91       	pop	r23
    1c58:	6f 91       	pop	r22
    1c5a:	5f 91       	pop	r21
    1c5c:	4f 91       	pop	r20
    1c5e:	3f 91       	pop	r19
    1c60:	2f 91       	pop	r18
    1c62:	0f 90       	pop	r0
    1c64:	0f be       	out	0x3f, r0	; 63
    1c66:	0f 90       	pop	r0
    1c68:	1f 90       	pop	r1
    1c6a:	18 95       	reti

00001c6c <__vector_2>:
    1c6c:	1f 92       	push	r1

00001c6e <.LCFI14>:
    1c6e:	0f 92       	push	r0

00001c70 <.LCFI15>:
    1c70:	0f b6       	in	r0, 0x3f	; 63
    1c72:	0f 92       	push	r0
    1c74:	11 24       	eor	r1, r1
    1c76:	2f 93       	push	r18

00001c78 <.LCFI16>:
    1c78:	3f 93       	push	r19

00001c7a <.LCFI17>:
    1c7a:	4f 93       	push	r20

00001c7c <.LCFI18>:
    1c7c:	5f 93       	push	r21

00001c7e <.LCFI19>:
    1c7e:	6f 93       	push	r22

00001c80 <.LCFI20>:
    1c80:	7f 93       	push	r23

00001c82 <.LCFI21>:
    1c82:	8f 93       	push	r24

00001c84 <.LCFI22>:
    1c84:	9f 93       	push	r25

00001c86 <.LCFI23>:
    1c86:	af 93       	push	r26

00001c88 <.LCFI24>:
    1c88:	bf 93       	push	r27

00001c8a <.LCFI25>:
    1c8a:	ef 93       	push	r30

00001c8c <.LCFI26>:
    1c8c:	ff 93       	push	r31

00001c8e <.LCFI27>:
    1c8e:	e0 91 2c 01 	lds	r30, 0x012C	; 0x80012c <EXTI_AFptrCallback+0x2>
    1c92:	f0 91 2d 01 	lds	r31, 0x012D	; 0x80012d <EXTI_AFptrCallback+0x3>

00001c96 <.Loc.9>:
    1c96:	30 97       	sbiw	r30, 0x00	; 0
    1c98:	09 f0       	breq	.+2      	; 0x1c9c <.L3>

00001c9a <.Loc.10>:
    1c9a:	09 95       	icall

00001c9c <.L3>:
    1c9c:	ff 91       	pop	r31
    1c9e:	ef 91       	pop	r30
    1ca0:	bf 91       	pop	r27
    1ca2:	af 91       	pop	r26
    1ca4:	9f 91       	pop	r25
    1ca6:	8f 91       	pop	r24
    1ca8:	7f 91       	pop	r23
    1caa:	6f 91       	pop	r22
    1cac:	5f 91       	pop	r21
    1cae:	4f 91       	pop	r20
    1cb0:	3f 91       	pop	r19
    1cb2:	2f 91       	pop	r18
    1cb4:	0f 90       	pop	r0
    1cb6:	0f be       	out	0x3f, r0	; 63
    1cb8:	0f 90       	pop	r0
    1cba:	1f 90       	pop	r1
    1cbc:	18 95       	reti

00001cbe <__vector_3>:
    1cbe:	1f 92       	push	r1

00001cc0 <.LCFI28>:
    1cc0:	0f 92       	push	r0

00001cc2 <.LCFI29>:
    1cc2:	0f b6       	in	r0, 0x3f	; 63
    1cc4:	0f 92       	push	r0
    1cc6:	11 24       	eor	r1, r1
    1cc8:	2f 93       	push	r18

00001cca <.LCFI30>:
    1cca:	3f 93       	push	r19

00001ccc <.LCFI31>:
    1ccc:	4f 93       	push	r20

00001cce <.LCFI32>:
    1cce:	5f 93       	push	r21

00001cd0 <.LCFI33>:
    1cd0:	6f 93       	push	r22

00001cd2 <.LCFI34>:
    1cd2:	7f 93       	push	r23

00001cd4 <.LCFI35>:
    1cd4:	8f 93       	push	r24

00001cd6 <.LCFI36>:
    1cd6:	9f 93       	push	r25

00001cd8 <.LCFI37>:
    1cd8:	af 93       	push	r26

00001cda <.LCFI38>:
    1cda:	bf 93       	push	r27

00001cdc <.LCFI39>:
    1cdc:	ef 93       	push	r30

00001cde <.LCFI40>:
    1cde:	ff 93       	push	r31

00001ce0 <.LCFI41>:
    1ce0:	e0 91 2e 01 	lds	r30, 0x012E	; 0x80012e <EXTI_AFptrCallback+0x4>
    1ce4:	f0 91 2f 01 	lds	r31, 0x012F	; 0x80012f <EXTI_AFptrCallback+0x5>

00001ce8 <.Loc.15>:
    1ce8:	30 97       	sbiw	r30, 0x00	; 0
    1cea:	09 f0       	breq	.+2      	; 0x1cee <.L5>

00001cec <.Loc.16>:
    1cec:	09 95       	icall

00001cee <.L5>:
    1cee:	ff 91       	pop	r31
    1cf0:	ef 91       	pop	r30
    1cf2:	bf 91       	pop	r27
    1cf4:	af 91       	pop	r26
    1cf6:	9f 91       	pop	r25
    1cf8:	8f 91       	pop	r24
    1cfa:	7f 91       	pop	r23
    1cfc:	6f 91       	pop	r22
    1cfe:	5f 91       	pop	r21
    1d00:	4f 91       	pop	r20
    1d02:	3f 91       	pop	r19
    1d04:	2f 91       	pop	r18
    1d06:	0f 90       	pop	r0
    1d08:	0f be       	out	0x3f, r0	; 63
    1d0a:	0f 90       	pop	r0
    1d0c:	1f 90       	pop	r1
    1d0e:	18 95       	reti

00001d10 <EXTI_enuInitInterrupt>:
    1d10:	26 2f       	mov	r18, r22
    1d12:	37 2f       	mov	r19, r23

00001d14 <.Loc.20>:
    1d14:	83 30       	cpi	r24, 0x03	; 3
    1d16:	70 f4       	brcc	.+28     	; 0x1d34 <.L9>

00001d18 <.Loc.22>:
    1d18:	21 15       	cp	r18, r1
    1d1a:	31 05       	cpc	r19, r1
    1d1c:	71 f0       	breq	.+28     	; 0x1d3a <.L10>

00001d1e <.Loc.24>:
    1d1e:	e8 2f       	mov	r30, r24
    1d20:	f0 e0       	ldi	r31, 0x00	; 0

00001d22 <.Loc.26>:
    1d22:	ee 0f       	add	r30, r30
    1d24:	ff 1f       	adc	r31, r31
    1d26:	e6 5d       	subi	r30, 0xD6	; 214
    1d28:	fe 4f       	sbci	r31, 0xFE	; 254
    1d2a:	31 83       	std	Z+1, r19	; 0x01
    1d2c:	20 83       	st	Z, r18

00001d2e <.Loc.27>:
    1d2e:	80 e0       	ldi	r24, 0x00	; 0
    1d30:	90 e0       	ldi	r25, 0x00	; 0

00001d32 <.LVL4>:
    1d32:	08 95       	ret

00001d34 <.L9>:
    1d34:	84 e0       	ldi	r24, 0x04	; 4
    1d36:	90 e0       	ldi	r25, 0x00	; 0

00001d38 <.LVL6>:
    1d38:	08 95       	ret

00001d3a <.L10>:
    1d3a:	82 e0       	ldi	r24, 0x02	; 2
    1d3c:	90 e0       	ldi	r25, 0x00	; 0

00001d3e <.LVL8>:
    1d3e:	08 95       	ret

00001d40 <EXTI_enuSetSenseControl>:
    1d40:	64 30       	cpi	r22, 0x04	; 4
    1d42:	40 f5       	brcc	.+80     	; 0x1d94 <.L15>

00001d44 <.Loc.37>:
    1d44:	81 30       	cpi	r24, 0x01	; 1
    1d46:	71 f0       	breq	.+28     	; 0x1d64 <.L13>
    1d48:	82 30       	cpi	r24, 0x02	; 2
    1d4a:	c1 f0       	breq	.+48     	; 0x1d7c <.L14>
    1d4c:	88 23       	and	r24, r24
    1d4e:	19 f0       	breq	.+6      	; 0x1d56 <.L17>
    1d50:	84 e0       	ldi	r24, 0x04	; 4
    1d52:	90 e0       	ldi	r25, 0x00	; 0

00001d54 <.LVL10>:
    1d54:	08 95       	ret

00001d56 <.L17>:
    1d56:	85 b7       	in	r24, 0x35	; 53

00001d58 <.LVL12>:
    1d58:	8c 7f       	andi	r24, 0xFC	; 252
    1d5a:	86 2b       	or	r24, r22
    1d5c:	85 bf       	out	0x35, r24	; 53

00001d5e <.Loc.42>:
    1d5e:	80 e0       	ldi	r24, 0x00	; 0
    1d60:	90 e0       	ldi	r25, 0x00	; 0
    1d62:	08 95       	ret

00001d64 <.L13>:
    1d64:	85 b7       	in	r24, 0x35	; 53

00001d66 <.LVL14>:
    1d66:	70 e0       	ldi	r23, 0x00	; 0
    1d68:	66 0f       	add	r22, r22
    1d6a:	77 1f       	adc	r23, r23
    1d6c:	66 0f       	add	r22, r22
    1d6e:	77 1f       	adc	r23, r23

00001d70 <.LVL15>:
    1d70:	83 7f       	andi	r24, 0xF3	; 243
    1d72:	68 2b       	or	r22, r24

00001d74 <.Loc.48>:
    1d74:	65 bf       	out	0x35, r22	; 53

00001d76 <.Loc.49>:
    1d76:	80 e0       	ldi	r24, 0x00	; 0
    1d78:	90 e0       	ldi	r25, 0x00	; 0
    1d7a:	08 95       	ret

00001d7c <.L14>:
    1d7c:	84 b7       	in	r24, 0x34	; 52

00001d7e <.LVL17>:
    1d7e:	90 e4       	ldi	r25, 0x40	; 64
    1d80:	69 9f       	mul	r22, r25
    1d82:	b0 01       	movw	r22, r0
    1d84:	11 24       	eor	r1, r1

00001d86 <.LVL18>:
    1d86:	60 74       	andi	r22, 0x40	; 64

00001d88 <.Loc.55>:
    1d88:	8f 7b       	andi	r24, 0xBF	; 191
    1d8a:	86 2b       	or	r24, r22

00001d8c <.Loc.56>:
    1d8c:	84 bf       	out	0x34, r24	; 52

00001d8e <.Loc.57>:
    1d8e:	80 e0       	ldi	r24, 0x00	; 0
    1d90:	90 e0       	ldi	r25, 0x00	; 0
    1d92:	08 95       	ret

00001d94 <.L15>:
    1d94:	84 e0       	ldi	r24, 0x04	; 4
    1d96:	90 e0       	ldi	r25, 0x00	; 0

00001d98 <.LVL20>:
    1d98:	08 95       	ret

00001d9a <EXTI_enuEnableInterrupt>:
    1d9a:	81 30       	cpi	r24, 0x01	; 1
    1d9c:	69 f0       	breq	.+26     	; 0x1db8 <.L19>
    1d9e:	82 30       	cpi	r24, 0x02	; 2
    1da0:	89 f0       	breq	.+34     	; 0x1dc4 <.L20>
    1da2:	88 23       	and	r24, r24
    1da4:	19 f0       	breq	.+6      	; 0x1dac <.L23>
    1da6:	84 e0       	ldi	r24, 0x04	; 4
    1da8:	90 e0       	ldi	r25, 0x00	; 0

00001daa <.LVL22>:
    1daa:	08 95       	ret

00001dac <.L23>:
    1dac:	8b b7       	in	r24, 0x3b	; 59

00001dae <.LVL24>:
    1dae:	80 64       	ori	r24, 0x40	; 64
    1db0:	8b bf       	out	0x3b, r24	; 59

00001db2 <.Loc.66>:
    1db2:	80 e0       	ldi	r24, 0x00	; 0
    1db4:	90 e0       	ldi	r25, 0x00	; 0
    1db6:	08 95       	ret

00001db8 <.L19>:
    1db8:	8b b7       	in	r24, 0x3b	; 59

00001dba <.LVL26>:
    1dba:	80 68       	ori	r24, 0x80	; 128
    1dbc:	8b bf       	out	0x3b, r24	; 59

00001dbe <.Loc.70>:
    1dbe:	80 e0       	ldi	r24, 0x00	; 0
    1dc0:	90 e0       	ldi	r25, 0x00	; 0
    1dc2:	08 95       	ret

00001dc4 <.L20>:
    1dc4:	8b b7       	in	r24, 0x3b	; 59

00001dc6 <.LVL28>:
    1dc6:	80 62       	ori	r24, 0x20	; 32
    1dc8:	8b bf       	out	0x3b, r24	; 59

00001dca <.Loc.74>:
    1dca:	80 e0       	ldi	r24, 0x00	; 0
    1dcc:	90 e0       	ldi	r25, 0x00	; 0
    1dce:	08 95       	ret

00001dd0 <EXTI_enuDisableInterrupt>:
    1dd0:	81 30       	cpi	r24, 0x01	; 1
    1dd2:	69 f0       	breq	.+26     	; 0x1dee <.L25>
    1dd4:	82 30       	cpi	r24, 0x02	; 2
    1dd6:	89 f0       	breq	.+34     	; 0x1dfa <.L26>
    1dd8:	88 23       	and	r24, r24
    1dda:	19 f0       	breq	.+6      	; 0x1de2 <.L29>
    1ddc:	84 e0       	ldi	r24, 0x04	; 4
    1dde:	90 e0       	ldi	r25, 0x00	; 0

00001de0 <.LVL30>:
    1de0:	08 95       	ret

00001de2 <.L29>:
    1de2:	8b b7       	in	r24, 0x3b	; 59

00001de4 <.LVL32>:
    1de4:	8f 7b       	andi	r24, 0xBF	; 191
    1de6:	8b bf       	out	0x3b, r24	; 59

00001de8 <.Loc.81>:
    1de8:	80 e0       	ldi	r24, 0x00	; 0
    1dea:	90 e0       	ldi	r25, 0x00	; 0
    1dec:	08 95       	ret

00001dee <.L25>:
    1dee:	8b b7       	in	r24, 0x3b	; 59

00001df0 <.LVL34>:
    1df0:	8f 77       	andi	r24, 0x7F	; 127
    1df2:	8b bf       	out	0x3b, r24	; 59

00001df4 <.Loc.85>:
    1df4:	80 e0       	ldi	r24, 0x00	; 0
    1df6:	90 e0       	ldi	r25, 0x00	; 0
    1df8:	08 95       	ret

00001dfa <.L26>:
    1dfa:	8b b7       	in	r24, 0x3b	; 59

00001dfc <.LVL36>:
    1dfc:	8f 7d       	andi	r24, 0xDF	; 223
    1dfe:	8b bf       	out	0x3b, r24	; 59

00001e00 <.Loc.89>:
    1e00:	80 e0       	ldi	r24, 0x00	; 0
    1e02:	90 e0       	ldi	r25, 0x00	; 0
    1e04:	08 95       	ret

00001e06 <__vector_19>:
    1e06:	1f 92       	push	r1

00001e08 <.LCFI0>:
    1e08:	0f 92       	push	r0

00001e0a <.LCFI1>:
    1e0a:	0f b6       	in	r0, 0x3f	; 63
    1e0c:	0f 92       	push	r0
    1e0e:	11 24       	eor	r1, r1
    1e10:	2f 93       	push	r18

00001e12 <.LCFI2>:
    1e12:	3f 93       	push	r19

00001e14 <.LCFI3>:
    1e14:	4f 93       	push	r20

00001e16 <.LCFI4>:
    1e16:	5f 93       	push	r21

00001e18 <.LCFI5>:
    1e18:	6f 93       	push	r22

00001e1a <.LCFI6>:
    1e1a:	7f 93       	push	r23

00001e1c <.LCFI7>:
    1e1c:	8f 93       	push	r24

00001e1e <.LCFI8>:
    1e1e:	9f 93       	push	r25

00001e20 <.LCFI9>:
    1e20:	af 93       	push	r26

00001e22 <.LCFI10>:
    1e22:	bf 93       	push	r27

00001e24 <.LCFI11>:
    1e24:	ef 93       	push	r30

00001e26 <.LCFI12>:
    1e26:	ff 93       	push	r31

00001e28 <.LCFI13>:
    1e28:	e0 91 30 01 	lds	r30, 0x0130	; 0x800130 <I2C_pvCallBack>
    1e2c:	f0 91 31 01 	lds	r31, 0x0131	; 0x800131 <I2C_pvCallBack+0x1>

00001e30 <.Loc.3>:
    1e30:	30 97       	sbiw	r30, 0x00	; 0
    1e32:	09 f0       	breq	.+2      	; 0x1e36 <.L1>

00001e34 <.Loc.4>:
    1e34:	09 95       	icall

00001e36 <.L1>:
    1e36:	ff 91       	pop	r31
    1e38:	ef 91       	pop	r30
    1e3a:	bf 91       	pop	r27
    1e3c:	af 91       	pop	r26
    1e3e:	9f 91       	pop	r25
    1e40:	8f 91       	pop	r24
    1e42:	7f 91       	pop	r23
    1e44:	6f 91       	pop	r22
    1e46:	5f 91       	pop	r21
    1e48:	4f 91       	pop	r20
    1e4a:	3f 91       	pop	r19
    1e4c:	2f 91       	pop	r18
    1e4e:	0f 90       	pop	r0
    1e50:	0f be       	out	0x3f, r0	; 63
    1e52:	0f 90       	pop	r0
    1e54:	1f 90       	pop	r1
    1e56:	18 95       	reti

00001e58 <I2C_enuInit_Master_And_Slave>:
    1e58:	28 2f       	mov	r18, r24
    1e5a:	86 2f       	mov	r24, r22

00001e5c <.LVL2>:
    1e5c:	97 2f       	mov	r25, r23

00001e5e <.Loc.10>:
    1e5e:	3f ef       	ldi	r19, 0xFF	; 255
    1e60:	32 0f       	add	r19, r18

00001e62 <.Loc.11>:
    1e62:	37 37       	cpi	r19, 0x77	; 119
    1e64:	10 f5       	brcc	.+68     	; 0x1eaa <.L5>

00001e66 <.Loc.12>:
    1e66:	bc 01       	movw	r22, r24

00001e68 <.LVL3>:
    1e68:	66 0f       	add	r22, r22
    1e6a:	77 1f       	adc	r23, r23
    1e6c:	80 e4       	ldi	r24, 0x40	; 64
    1e6e:	9f e1       	ldi	r25, 0x1F	; 31
    1e70:	0e 94 0a 19 	call	0x3214	; 0x3214 <__udivmodhi4>
    1e74:	cb 01       	movw	r24, r22
    1e76:	a0 e0       	ldi	r26, 0x00	; 0
    1e78:	b0 e0       	ldi	r27, 0x00	; 0
    1e7a:	08 97       	sbiw	r24, 0x08	; 8
    1e7c:	a1 09       	sbc	r26, r1
    1e7e:	b1 09       	sbc	r27, r1

00001e80 <.Loc.14>:
    1e80:	8f 3f       	cpi	r24, 0xFF	; 255
    1e82:	91 05       	cpc	r25, r1
    1e84:	a1 05       	cpc	r26, r1
    1e86:	b1 05       	cpc	r27, r1
    1e88:	09 f0       	breq	.+2      	; 0x1e8c <.Loc.15>

00001e8a <L0^A>:
    1e8a:	90 f4       	brcc	.+36     	; 0x1eb0 <.L6>

00001e8c <.Loc.15>:
    1e8c:	42 30       	cpi	r20, 0x02	; 2
    1e8e:	98 f4       	brcc	.+38     	; 0x1eb6 <.L7>

00001e90 <.Loc.16>:
    1e90:	82 2f       	mov	r24, r18
    1e92:	90 e0       	ldi	r25, 0x00	; 0
    1e94:	88 0f       	add	r24, r24
    1e96:	99 1f       	adc	r25, r25

00001e98 <.Loc.18>:
    1e98:	84 2b       	or	r24, r20

00001e9a <.Loc.19>:
    1e9a:	82 b9       	out	0x02, r24	; 2

00001e9c <.Loc.20>:
    1e9c:	68 50       	subi	r22, 0x08	; 8

00001e9e <.Loc.22>:
    1e9e:	60 b9       	out	0x00, r22	; 0

00001ea0 <.Loc.23>:
    1ea0:	84 e0       	ldi	r24, 0x04	; 4
    1ea2:	86 bf       	out	0x36, r24	; 54

00001ea4 <.Loc.25>:
    1ea4:	80 e0       	ldi	r24, 0x00	; 0
    1ea6:	90 e0       	ldi	r25, 0x00	; 0
    1ea8:	08 95       	ret

00001eaa <.L5>:
    1eaa:	84 e0       	ldi	r24, 0x04	; 4
    1eac:	90 e0       	ldi	r25, 0x00	; 0
    1eae:	08 95       	ret

00001eb0 <.L6>:
    1eb0:	84 e0       	ldi	r24, 0x04	; 4
    1eb2:	90 e0       	ldi	r25, 0x00	; 0
    1eb4:	08 95       	ret

00001eb6 <.L7>:
    1eb6:	84 e0       	ldi	r24, 0x04	; 4
    1eb8:	90 e0       	ldi	r25, 0x00	; 0

00001eba <.Loc.29>:
    1eba:	08 95       	ret

00001ebc <I2C_enuInit_Master>:
    1ebc:	bc 01       	movw	r22, r24
    1ebe:	66 0f       	add	r22, r22
    1ec0:	77 1f       	adc	r23, r23
    1ec2:	80 e4       	ldi	r24, 0x40	; 64
    1ec4:	9f e1       	ldi	r25, 0x1F	; 31

00001ec6 <.LVL7>:
    1ec6:	0e 94 0a 19 	call	0x3214	; 0x3214 <__udivmodhi4>
    1eca:	cb 01       	movw	r24, r22
    1ecc:	a0 e0       	ldi	r26, 0x00	; 0
    1ece:	b0 e0       	ldi	r27, 0x00	; 0
    1ed0:	08 97       	sbiw	r24, 0x08	; 8
    1ed2:	a1 09       	sbc	r26, r1
    1ed4:	b1 09       	sbc	r27, r1

00001ed6 <.Loc.34>:
    1ed6:	8f 3f       	cpi	r24, 0xFF	; 255
    1ed8:	91 05       	cpc	r25, r1
    1eda:	a1 05       	cpc	r26, r1
    1edc:	b1 05       	cpc	r27, r1
    1ede:	09 f0       	breq	.+2      	; 0x1ee2 <.Loc.35>

00001ee0 <L0^A>:
    1ee0:	40 f4       	brcc	.+16     	; 0x1ef2 <.L10>

00001ee2 <.Loc.35>:
    1ee2:	12 b8       	out	0x02, r1	; 2

00001ee4 <.Loc.37>:
    1ee4:	68 50       	subi	r22, 0x08	; 8

00001ee6 <.Loc.39>:
    1ee6:	60 b9       	out	0x00, r22	; 0

00001ee8 <.Loc.40>:
    1ee8:	84 e8       	ldi	r24, 0x84	; 132
    1eea:	86 bf       	out	0x36, r24	; 54

00001eec <.Loc.42>:
    1eec:	80 e0       	ldi	r24, 0x00	; 0
    1eee:	90 e0       	ldi	r25, 0x00	; 0
    1ef0:	08 95       	ret

00001ef2 <.L10>:
    1ef2:	84 e0       	ldi	r24, 0x04	; 4
    1ef4:	90 e0       	ldi	r25, 0x00	; 0

00001ef6 <.Loc.45>:
    1ef6:	08 95       	ret

00001ef8 <I2C_enuInit_Slave>:
    1ef8:	9f ef       	ldi	r25, 0xFF	; 255
    1efa:	98 0f       	add	r25, r24

00001efc <.Loc.49>:
    1efc:	97 37       	cpi	r25, 0x77	; 119
    1efe:	60 f4       	brcc	.+24     	; 0x1f18 <.L13>

00001f00 <.Loc.50>:
    1f00:	62 30       	cpi	r22, 0x02	; 2
    1f02:	68 f4       	brcc	.+26     	; 0x1f1e <.L14>

00001f04 <.Loc.51>:
    1f04:	90 e0       	ldi	r25, 0x00	; 0
    1f06:	88 0f       	add	r24, r24
    1f08:	99 1f       	adc	r25, r25

00001f0a <.LVL9>:
    1f0a:	86 2b       	or	r24, r22

00001f0c <.Loc.54>:
    1f0c:	82 b9       	out	0x02, r24	; 2

00001f0e <.Loc.55>:
    1f0e:	84 ec       	ldi	r24, 0xC4	; 196
    1f10:	86 bf       	out	0x36, r24	; 54

00001f12 <.Loc.57>:
    1f12:	80 e0       	ldi	r24, 0x00	; 0
    1f14:	90 e0       	ldi	r25, 0x00	; 0
    1f16:	08 95       	ret

00001f18 <.L13>:
    1f18:	84 e0       	ldi	r24, 0x04	; 4
    1f1a:	90 e0       	ldi	r25, 0x00	; 0

00001f1c <.LVL11>:
    1f1c:	08 95       	ret

00001f1e <.L14>:
    1f1e:	84 e0       	ldi	r24, 0x04	; 4
    1f20:	90 e0       	ldi	r25, 0x00	; 0

00001f22 <.LVL13>:
    1f22:	08 95       	ret

00001f24 <I2C_enuStartCondition_Master>:
    1f24:	e8 2f       	mov	r30, r24
    1f26:	f9 2f       	mov	r31, r25

00001f28 <.Loc.65>:
    1f28:	30 97       	sbiw	r30, 0x00	; 0
    1f2a:	59 f0       	breq	.+22     	; 0x1f42 <.L18>

00001f2c <.Loc.67>:
    1f2c:	84 ea       	ldi	r24, 0xA4	; 164

00001f2e <.LVL15>:
    1f2e:	86 bf       	out	0x36, r24	; 54

00001f30 <.L17>:
    1f30:	06 b6       	in	r0, 0x36	; 54
    1f32:	07 fe       	sbrs	r0, 7
    1f34:	fd cf       	rjmp	.-6      	; 0x1f30 <.L17>

00001f36 <.Loc.72>:
    1f36:	81 b1       	in	r24, 0x01	; 1
    1f38:	88 7f       	andi	r24, 0xF8	; 248

00001f3a <.Loc.74>:
    1f3a:	80 83       	st	Z, r24

00001f3c <.Loc.75>:
    1f3c:	80 e0       	ldi	r24, 0x00	; 0
    1f3e:	90 e0       	ldi	r25, 0x00	; 0
    1f40:	08 95       	ret

00001f42 <.L18>:
    1f42:	82 e0       	ldi	r24, 0x02	; 2
    1f44:	90 e0       	ldi	r25, 0x00	; 0

00001f46 <.LVL17>:
    1f46:	08 95       	ret

00001f48 <I2C_enuRepeatedStartCondition_Master>:
    1f48:	0e 94 92 0f 	call	0x1f24	; 0x1f24 <I2C_enuStartCondition_Master>

00001f4c <.LVL19>:
    1f4c:	08 95       	ret

00001f4e <I2C_enuStopCondition_Master>:
    1f4e:	84 e9       	ldi	r24, 0x94	; 148
    1f50:	86 bf       	out	0x36, r24	; 54

00001f52 <.Loc.86>:
    1f52:	08 95       	ret

00001f54 <I2C_enuSendSLA_R_W_Master>:
    1f54:	e4 2f       	mov	r30, r20
    1f56:	f5 2f       	mov	r31, r21

00001f58 <.Loc.89>:
    1f58:	88 37       	cpi	r24, 0x78	; 120
    1f5a:	a0 f4       	brcc	.+40     	; 0x1f84 <.L24>

00001f5c <.Loc.91>:
    1f5c:	62 30       	cpi	r22, 0x02	; 2
    1f5e:	a8 f4       	brcc	.+42     	; 0x1f8a <.L25>

00001f60 <.Loc.92>:
    1f60:	30 97       	sbiw	r30, 0x00	; 0
    1f62:	b1 f0       	breq	.+44     	; 0x1f90 <.L26>

00001f64 <.Loc.94>:
    1f64:	90 e0       	ldi	r25, 0x00	; 0
    1f66:	88 0f       	add	r24, r24
    1f68:	99 1f       	adc	r25, r25

00001f6a <.LVL21>:
    1f6a:	86 2b       	or	r24, r22

00001f6c <.Loc.97>:
    1f6c:	83 b9       	out	0x03, r24	; 3

00001f6e <.Loc.98>:
    1f6e:	84 e8       	ldi	r24, 0x84	; 132
    1f70:	86 bf       	out	0x36, r24	; 54

00001f72 <.L23>:
    1f72:	06 b6       	in	r0, 0x36	; 54
    1f74:	07 fe       	sbrs	r0, 7
    1f76:	fd cf       	rjmp	.-6      	; 0x1f72 <.L23>

00001f78 <.Loc.102>:
    1f78:	81 b1       	in	r24, 0x01	; 1
    1f7a:	88 7f       	andi	r24, 0xF8	; 248

00001f7c <.Loc.104>:
    1f7c:	80 83       	st	Z, r24

00001f7e <.Loc.105>:
    1f7e:	80 e0       	ldi	r24, 0x00	; 0
    1f80:	90 e0       	ldi	r25, 0x00	; 0
    1f82:	08 95       	ret

00001f84 <.L24>:
    1f84:	84 e0       	ldi	r24, 0x04	; 4
    1f86:	90 e0       	ldi	r25, 0x00	; 0

00001f88 <.LVL23>:
    1f88:	08 95       	ret

00001f8a <.L25>:
    1f8a:	84 e0       	ldi	r24, 0x04	; 4
    1f8c:	90 e0       	ldi	r25, 0x00	; 0

00001f8e <.LVL25>:
    1f8e:	08 95       	ret

00001f90 <.L26>:
    1f90:	82 e0       	ldi	r24, 0x02	; 2
    1f92:	90 e0       	ldi	r25, 0x00	; 0

00001f94 <.LVL27>:
    1f94:	08 95       	ret

00001f96 <I2C_enuSendDataByte_Master>:
    1f96:	e6 2f       	mov	r30, r22
    1f98:	f7 2f       	mov	r31, r23

00001f9a <.Loc.115>:
    1f9a:	30 97       	sbiw	r30, 0x00	; 0
    1f9c:	61 f0       	breq	.+24     	; 0x1fb6 <.L30>

00001f9e <.Loc.117>:
    1f9e:	83 b9       	out	0x03, r24	; 3

00001fa0 <.Loc.119>:
    1fa0:	84 e8       	ldi	r24, 0x84	; 132

00001fa2 <.LVL29>:
    1fa2:	86 bf       	out	0x36, r24	; 54

00001fa4 <.L29>:
    1fa4:	06 b6       	in	r0, 0x36	; 54
    1fa6:	07 fe       	sbrs	r0, 7
    1fa8:	fd cf       	rjmp	.-6      	; 0x1fa4 <.L29>

00001faa <.Loc.124>:
    1faa:	81 b1       	in	r24, 0x01	; 1
    1fac:	88 7f       	andi	r24, 0xF8	; 248

00001fae <.Loc.126>:
    1fae:	80 83       	st	Z, r24

00001fb0 <.Loc.127>:
    1fb0:	80 e0       	ldi	r24, 0x00	; 0
    1fb2:	90 e0       	ldi	r25, 0x00	; 0
    1fb4:	08 95       	ret

00001fb6 <.L30>:
    1fb6:	82 e0       	ldi	r24, 0x02	; 2
    1fb8:	90 e0       	ldi	r25, 0x00	; 0

00001fba <.LVL32>:
    1fba:	08 95       	ret

00001fbc <I2C_enuReceiveDataByte_Master>:
    1fbc:	a8 2f       	mov	r26, r24
    1fbe:	b9 2f       	mov	r27, r25
    1fc0:	e4 2f       	mov	r30, r20
    1fc2:	f5 2f       	mov	r31, r21

00001fc4 <.Loc.133>:
    1fc4:	10 97       	sbiw	r26, 0x00	; 0
    1fc6:	a9 f0       	breq	.+42     	; 0x1ff2 <.L34>

00001fc8 <.Loc.135>:
    1fc8:	30 97       	sbiw	r30, 0x00	; 0
    1fca:	b1 f0       	breq	.+44     	; 0x1ff8 <.L35>

00001fcc <.Loc.136>:
    1fcc:	62 95       	swap	r22

00001fce <.LVL34>:
    1fce:	66 0f       	add	r22, r22
    1fd0:	66 0f       	add	r22, r22
    1fd2:	60 7c       	andi	r22, 0xC0	; 192

00001fd4 <.Loc.139>:
    1fd4:	64 68       	ori	r22, 0x84	; 132

00001fd6 <.Loc.140>:
    1fd6:	66 bf       	out	0x36, r22	; 54

00001fd8 <.L33>:
    1fd8:	06 b6       	in	r0, 0x36	; 54
    1fda:	07 fe       	sbrs	r0, 7
    1fdc:	fd cf       	rjmp	.-6      	; 0x1fd8 <.L33>

00001fde <.Loc.143>:
    1fde:	81 b1       	in	r24, 0x01	; 1

00001fe0 <.LVL35>:
    1fe0:	88 7f       	andi	r24, 0xF8	; 248

00001fe2 <.Loc.146>:
    1fe2:	80 83       	st	Z, r24

00001fe4 <.Loc.147>:
    1fe4:	80 3a       	cpi	r24, 0xA0	; 160
    1fe6:	59 f0       	breq	.+22     	; 0x1ffe <.L36>

00001fe8 <.Loc.149>:
    1fe8:	83 b1       	in	r24, 0x03	; 3

00001fea <.Loc.151>:
    1fea:	8c 93       	st	X, r24

00001fec <.Loc.152>:
    1fec:	80 e0       	ldi	r24, 0x00	; 0
    1fee:	90 e0       	ldi	r25, 0x00	; 0
    1ff0:	08 95       	ret

00001ff2 <.L34>:
    1ff2:	82 e0       	ldi	r24, 0x02	; 2
    1ff4:	90 e0       	ldi	r25, 0x00	; 0

00001ff6 <.LVL37>:
    1ff6:	08 95       	ret

00001ff8 <.L35>:
    1ff8:	82 e0       	ldi	r24, 0x02	; 2
    1ffa:	90 e0       	ldi	r25, 0x00	; 0

00001ffc <.LVL39>:
    1ffc:	08 95       	ret

00001ffe <.L36>:
    1ffe:	80 e0       	ldi	r24, 0x00	; 0
    2000:	90 e0       	ldi	r25, 0x00	; 0

00002002 <.Loc.159>:
    2002:	08 95       	ret

00002004 <I2C_enuResetAndCheckStatus_Slave>:
    2004:	e8 2f       	mov	r30, r24
    2006:	f9 2f       	mov	r31, r25

00002008 <.Loc.162>:
    2008:	30 97       	sbiw	r30, 0x00	; 0
    200a:	59 f0       	breq	.+22     	; 0x2022 <.L40>

0000200c <.Loc.164>:
    200c:	84 e8       	ldi	r24, 0x84	; 132

0000200e <.LVL42>:
    200e:	86 bf       	out	0x36, r24	; 54

00002010 <.L39>:
    2010:	06 b6       	in	r0, 0x36	; 54
    2012:	07 fe       	sbrs	r0, 7
    2014:	fd cf       	rjmp	.-6      	; 0x2010 <.L39>

00002016 <.Loc.169>:
    2016:	81 b1       	in	r24, 0x01	; 1
    2018:	88 7f       	andi	r24, 0xF8	; 248

0000201a <.Loc.171>:
    201a:	80 83       	st	Z, r24

0000201c <.Loc.172>:
    201c:	80 e0       	ldi	r24, 0x00	; 0
    201e:	90 e0       	ldi	r25, 0x00	; 0
    2020:	08 95       	ret

00002022 <.L40>:
    2022:	82 e0       	ldi	r24, 0x02	; 2
    2024:	90 e0       	ldi	r25, 0x00	; 0

00002026 <.LVL44>:
    2026:	08 95       	ret

00002028 <I2C_enuCheckStatus_Slave>:
    2028:	e8 2f       	mov	r30, r24
    202a:	f9 2f       	mov	r31, r25

0000202c <.Loc.178>:
    202c:	30 97       	sbiw	r30, 0x00	; 0
    202e:	49 f0       	breq	.+18     	; 0x2042 <.L44>

00002030 <.L43>:
    2030:	06 b6       	in	r0, 0x36	; 54
    2032:	07 fe       	sbrs	r0, 7
    2034:	fd cf       	rjmp	.-6      	; 0x2030 <.L43>

00002036 <.Loc.181>:
    2036:	81 b1       	in	r24, 0x01	; 1

00002038 <.LVL46>:
    2038:	88 7f       	andi	r24, 0xF8	; 248

0000203a <.Loc.184>:
    203a:	80 83       	st	Z, r24

0000203c <.Loc.185>:
    203c:	80 e0       	ldi	r24, 0x00	; 0
    203e:	90 e0       	ldi	r25, 0x00	; 0
    2040:	08 95       	ret

00002042 <.L44>:
    2042:	82 e0       	ldi	r24, 0x02	; 2
    2044:	90 e0       	ldi	r25, 0x00	; 0

00002046 <.LVL48>:
    2046:	08 95       	ret

00002048 <I2C_enuSendDataByte_Slave>:
    2048:	62 30       	cpi	r22, 0x02	; 2
    204a:	50 f4       	brcc	.+20     	; 0x2060 <.L47>

0000204c <.Loc.192>:
    204c:	83 b9       	out	0x03, r24	; 3

0000204e <.Loc.194>:
    204e:	62 95       	swap	r22

00002050 <.LVL50>:
    2050:	66 0f       	add	r22, r22
    2052:	66 0f       	add	r22, r22
    2054:	60 7c       	andi	r22, 0xC0	; 192

00002056 <.Loc.197>:
    2056:	64 68       	ori	r22, 0x84	; 132

00002058 <.Loc.198>:
    2058:	66 bf       	out	0x36, r22	; 54

0000205a <.Loc.199>:
    205a:	80 e0       	ldi	r24, 0x00	; 0
    205c:	90 e0       	ldi	r25, 0x00	; 0

0000205e <.LVL51>:
    205e:	08 95       	ret

00002060 <.L47>:
    2060:	84 e0       	ldi	r24, 0x04	; 4
    2062:	90 e0       	ldi	r25, 0x00	; 0

00002064 <.LVL53>:
    2064:	08 95       	ret

00002066 <I2C_enuReceiveDataByte_Slave>:
    2066:	e8 2f       	mov	r30, r24
    2068:	f9 2f       	mov	r31, r25

0000206a <.Loc.206>:
    206a:	30 97       	sbiw	r30, 0x00	; 0
    206c:	81 f0       	breq	.+32     	; 0x208e <.L51>

0000206e <.Loc.208>:
    206e:	62 30       	cpi	r22, 0x02	; 2
    2070:	88 f4       	brcc	.+34     	; 0x2094 <.L52>

00002072 <.Loc.210>:
    2072:	62 95       	swap	r22

00002074 <.LVL55>:
    2074:	66 0f       	add	r22, r22
    2076:	66 0f       	add	r22, r22
    2078:	60 7c       	andi	r22, 0xC0	; 192

0000207a <.Loc.213>:
    207a:	64 68       	ori	r22, 0x84	; 132

0000207c <.Loc.214>:
    207c:	66 bf       	out	0x36, r22	; 54

0000207e <.L50>:
    207e:	06 b6       	in	r0, 0x36	; 54
    2080:	07 fe       	sbrs	r0, 7
    2082:	fd cf       	rjmp	.-6      	; 0x207e <.L50>

00002084 <.Loc.217>:
    2084:	83 b1       	in	r24, 0x03	; 3

00002086 <.LVL56>:
    2086:	80 83       	st	Z, r24

00002088 <.Loc.220>:
    2088:	80 e0       	ldi	r24, 0x00	; 0
    208a:	90 e0       	ldi	r25, 0x00	; 0
    208c:	08 95       	ret

0000208e <.L51>:
    208e:	82 e0       	ldi	r24, 0x02	; 2
    2090:	90 e0       	ldi	r25, 0x00	; 0

00002092 <.LVL58>:
    2092:	08 95       	ret

00002094 <.L52>:
    2094:	84 e0       	ldi	r24, 0x04	; 4
    2096:	90 e0       	ldi	r25, 0x00	; 0

00002098 <.LVL60>:
    2098:	08 95       	ret

0000209a <I2C_enuSetInterruptCallback>:
    209a:	28 2f       	mov	r18, r24
    209c:	39 2f       	mov	r19, r25

0000209e <.Loc.228>:
    209e:	21 15       	cp	r18, r1
    20a0:	31 05       	cpc	r19, r1
    20a2:	39 f0       	breq	.+14     	; 0x20b2 <.L55>

000020a4 <.Loc.230>:
    20a4:	30 93 31 01 	sts	0x0131, r19	; 0x800131 <I2C_pvCallBack+0x1>
    20a8:	20 93 30 01 	sts	0x0130, r18	; 0x800130 <I2C_pvCallBack>

000020ac <.Loc.232>:
    20ac:	80 e0       	ldi	r24, 0x00	; 0
    20ae:	90 e0       	ldi	r25, 0x00	; 0

000020b0 <.LVL62>:
    20b0:	08 95       	ret

000020b2 <.L55>:
    20b2:	82 e0       	ldi	r24, 0x02	; 2
    20b4:	90 e0       	ldi	r25, 0x00	; 0

000020b6 <.LVL64>:
    20b6:	08 95       	ret

000020b8 <I2C_enuEnableInterrupt>:
    20b8:	86 b7       	in	r24, 0x36	; 54
    20ba:	81 60       	ori	r24, 0x01	; 1
    20bc:	86 bf       	out	0x36, r24	; 54

000020be <.Loc.239>:
    20be:	08 95       	ret

000020c0 <I2C_enuDisableInterrupt>:
    20c0:	86 b7       	in	r24, 0x36	; 54
    20c2:	8e 7f       	andi	r24, 0xFE	; 254
    20c4:	86 bf       	out	0x36, r24	; 54

000020c6 <.Loc.242>:
    20c6:	08 95       	ret

000020c8 <__vector_12>:
    20c8:	1f 92       	push	r1

000020ca <.LCFI0>:
    20ca:	0f 92       	push	r0

000020cc <.LCFI1>:
    20cc:	0f b6       	in	r0, 0x3f	; 63
    20ce:	0f 92       	push	r0
    20d0:	11 24       	eor	r1, r1
    20d2:	2f 93       	push	r18

000020d4 <.LCFI2>:
    20d4:	3f 93       	push	r19

000020d6 <.LCFI3>:
    20d6:	4f 93       	push	r20

000020d8 <.LCFI4>:
    20d8:	5f 93       	push	r21

000020da <.LCFI5>:
    20da:	6f 93       	push	r22

000020dc <.LCFI6>:
    20dc:	7f 93       	push	r23

000020de <.LCFI7>:
    20de:	8f 93       	push	r24

000020e0 <.LCFI8>:
    20e0:	9f 93       	push	r25

000020e2 <.LCFI9>:
    20e2:	af 93       	push	r26

000020e4 <.LCFI10>:
    20e4:	bf 93       	push	r27

000020e6 <.LCFI11>:
    20e6:	ef 93       	push	r30

000020e8 <.LCFI12>:
    20e8:	ff 93       	push	r31

000020ea <.LCFI13>:
    20ea:	e0 91 32 01 	lds	r30, 0x0132	; 0x800132 <SPI_pvCallBack>
    20ee:	f0 91 33 01 	lds	r31, 0x0133	; 0x800133 <SPI_pvCallBack+0x1>

000020f2 <.Loc.3>:
    20f2:	30 97       	sbiw	r30, 0x00	; 0
    20f4:	09 f0       	breq	.+2      	; 0x20f8 <.L1>

000020f6 <.Loc.4>:
    20f6:	09 95       	icall

000020f8 <.L1>:
    20f8:	ff 91       	pop	r31
    20fa:	ef 91       	pop	r30
    20fc:	bf 91       	pop	r27
    20fe:	af 91       	pop	r26
    2100:	9f 91       	pop	r25
    2102:	8f 91       	pop	r24
    2104:	7f 91       	pop	r23
    2106:	6f 91       	pop	r22
    2108:	5f 91       	pop	r21
    210a:	4f 91       	pop	r20
    210c:	3f 91       	pop	r19
    210e:	2f 91       	pop	r18
    2110:	0f 90       	pop	r0
    2112:	0f be       	out	0x3f, r0	; 63
    2114:	0f 90       	pop	r0
    2116:	1f 90       	pop	r1
    2118:	18 95       	reti

0000211a <SPI_enuMasterInit>:
    211a:	ef 92       	push	r14

0000211c <.LCFI14>:
    211c:	0f 93       	push	r16

0000211e <.LCFI15>:
    211e:	98 2f       	mov	r25, r24
    2120:	9f 7d       	andi	r25, 0xDF	; 223
    2122:	91 11       	cpse	r25, r1
    2124:	22 c0       	rjmp	.+68     	; 0x216a <.L5>

00002126 <.Loc.10>:
    2126:	62 30       	cpi	r22, 0x02	; 2
    2128:	18 f5       	brcc	.+70     	; 0x2170 <.L6>

0000212a <.Loc.11>:
    212a:	92 2f       	mov	r25, r18
    212c:	97 7f       	andi	r25, 0xF7	; 247
    212e:	91 11       	cpse	r25, r1
    2130:	24 c0       	rjmp	.+72     	; 0x217a <.L7>

00002132 <.Loc.12>:
    2132:	90 2f       	mov	r25, r16
    2134:	9b 7f       	andi	r25, 0xFB	; 251
    2136:	91 11       	cpse	r25, r1
    2138:	23 c0       	rjmp	.+70     	; 0x2180 <.L8>

0000213a <.Loc.13>:
    213a:	44 30       	cpi	r20, 0x04	; 4
    213c:	20 f5       	brcc	.+72     	; 0x2186 <.L9>

0000213e <.Loc.14>:
    213e:	91 e0       	ldi	r25, 0x01	; 1
    2140:	9e 15       	cp	r25, r14
    2142:	20 f1       	brcs	.+72     	; 0x218c <.L10>

00002144 <.Loc.15>:
    2144:	84 2b       	or	r24, r20

00002146 <.LVL2>:
    2146:	82 2b       	or	r24, r18
    2148:	80 2b       	or	r24, r16
    214a:	80 65       	ori	r24, 0x50	; 80
    214c:	8d b9       	out	0x0d, r24	; 13

0000214e <.Loc.18>:
    214e:	6e b9       	out	0x0e, r22	; 14

00002150 <.Loc.20>:
    2150:	4e 2d       	mov	r20, r14

00002152 <.LVL3>:
    2152:	65 e0       	ldi	r22, 0x05	; 5

00002154 <.LVL4>:
    2154:	82 e0       	ldi	r24, 0x02	; 2
    2156:	0e 94 5c 0d 	call	0x1ab8	; 0x1ab8 <DIO_enuSetPinDirection>

0000215a <.LVL5>:
    215a:	00 97       	sbiw	r24, 0x00	; 0
    215c:	59 f4       	brne	.+22     	; 0x2174 <.L3>

0000215e <.Loc.26>:
    215e:	41 e0       	ldi	r20, 0x01	; 1
    2160:	67 e0       	ldi	r22, 0x07	; 7
    2162:	82 e0       	ldi	r24, 0x02	; 2

00002164 <.LVL6>:
    2164:	0e 94 5c 0d 	call	0x1ab8	; 0x1ab8 <DIO_enuSetPinDirection>

00002168 <.LVL7>:
    2168:	05 c0       	rjmp	.+10     	; 0x2174 <.L3>

0000216a <.L5>:
    216a:	84 e0       	ldi	r24, 0x04	; 4
    216c:	90 e0       	ldi	r25, 0x00	; 0

0000216e <.LVL9>:
    216e:	02 c0       	rjmp	.+4      	; 0x2174 <.L3>

00002170 <.L6>:
    2170:	84 e0       	ldi	r24, 0x04	; 4
    2172:	90 e0       	ldi	r25, 0x00	; 0

00002174 <.L3>:
    2174:	0f 91       	pop	r16

00002176 <.LVL12>:
    2176:	ef 90       	pop	r14

00002178 <.LVL13>:
    2178:	08 95       	ret

0000217a <.L7>:
    217a:	84 e0       	ldi	r24, 0x04	; 4
    217c:	90 e0       	ldi	r25, 0x00	; 0

0000217e <.LVL15>:
    217e:	fa cf       	rjmp	.-12     	; 0x2174 <.L3>

00002180 <.L8>:
    2180:	84 e0       	ldi	r24, 0x04	; 4
    2182:	90 e0       	ldi	r25, 0x00	; 0

00002184 <.LVL17>:
    2184:	f7 cf       	rjmp	.-18     	; 0x2174 <.L3>

00002186 <.L9>:
    2186:	84 e0       	ldi	r24, 0x04	; 4
    2188:	90 e0       	ldi	r25, 0x00	; 0

0000218a <.LVL19>:
    218a:	f4 cf       	rjmp	.-24     	; 0x2174 <.L3>

0000218c <.L10>:
    218c:	84 e0       	ldi	r24, 0x04	; 4
    218e:	90 e0       	ldi	r25, 0x00	; 0

00002190 <.LVL21>:
    2190:	f1 cf       	rjmp	.-30     	; 0x2174 <.L3>

00002192 <SPI_enuSlaveInit>:
    2192:	38 2f       	mov	r19, r24
    2194:	3f 7d       	andi	r19, 0xDF	; 223
    2196:	31 11       	cpse	r19, r1
    2198:	12 c0       	rjmp	.+36     	; 0x21be <.L13>

0000219a <.Loc.48>:
    219a:	36 2f       	mov	r19, r22
    219c:	37 7f       	andi	r19, 0xF7	; 247
    219e:	31 11       	cpse	r19, r1
    21a0:	11 c0       	rjmp	.+34     	; 0x21c4 <.L14>

000021a2 <.Loc.49>:
    21a2:	34 2f       	mov	r19, r20
    21a4:	3b 7f       	andi	r19, 0xFB	; 251
    21a6:	31 11       	cpse	r19, r1
    21a8:	10 c0       	rjmp	.+32     	; 0x21ca <.L15>

000021aa <.Loc.50>:
    21aa:	86 2b       	or	r24, r22

000021ac <.LVL23>:
    21ac:	84 2b       	or	r24, r20
    21ae:	80 64       	ori	r24, 0x40	; 64
    21b0:	8d b9       	out	0x0d, r24	; 13

000021b2 <.Loc.53>:
    21b2:	42 2f       	mov	r20, r18

000021b4 <.LVL24>:
    21b4:	66 e0       	ldi	r22, 0x06	; 6

000021b6 <.LVL25>:
    21b6:	82 e0       	ldi	r24, 0x02	; 2
    21b8:	0e 94 5c 0d 	call	0x1ab8	; 0x1ab8 <DIO_enuSetPinDirection>

000021bc <.LVL26>:
    21bc:	08 95       	ret

000021be <.L13>:
    21be:	84 e0       	ldi	r24, 0x04	; 4

000021c0 <.LVL28>:
    21c0:	90 e0       	ldi	r25, 0x00	; 0
    21c2:	08 95       	ret

000021c4 <.L14>:
    21c4:	84 e0       	ldi	r24, 0x04	; 4

000021c6 <.LVL30>:
    21c6:	90 e0       	ldi	r25, 0x00	; 0
    21c8:	08 95       	ret

000021ca <.L15>:
    21ca:	84 e0       	ldi	r24, 0x04	; 4

000021cc <.LVL32>:
    21cc:	90 e0       	ldi	r25, 0x00	; 0

000021ce <.Loc.64>:
    21ce:	08 95       	ret

000021d0 <SPI_voidEnableTransferCompleteInterrupt>:
    21d0:	8d b1       	in	r24, 0x0d	; 13
    21d2:	80 68       	ori	r24, 0x80	; 128
    21d4:	8d b9       	out	0x0d, r24	; 13

000021d6 <.Loc.67>:
    21d6:	08 95       	ret

000021d8 <SPI_enuSetTransferCompleteCallback>:
    21d8:	28 2f       	mov	r18, r24
    21da:	39 2f       	mov	r19, r25

000021dc <.Loc.70>:
    21dc:	21 15       	cp	r18, r1
    21de:	31 05       	cpc	r19, r1
    21e0:	39 f0       	breq	.+14     	; 0x21f0 <.L19>

000021e2 <.Loc.72>:
    21e2:	30 93 33 01 	sts	0x0133, r19	; 0x800133 <SPI_pvCallBack+0x1>
    21e6:	20 93 32 01 	sts	0x0132, r18	; 0x800132 <SPI_pvCallBack>

000021ea <.Loc.74>:
    21ea:	80 e0       	ldi	r24, 0x00	; 0
    21ec:	90 e0       	ldi	r25, 0x00	; 0

000021ee <.LVL34>:
    21ee:	08 95       	ret

000021f0 <.L19>:
    21f0:	82 e0       	ldi	r24, 0x02	; 2
    21f2:	90 e0       	ldi	r25, 0x00	; 0

000021f4 <.LVL36>:
    21f4:	08 95       	ret

000021f6 <SPI_voidDisableTransferCompleteInterrupt>:
    21f6:	8d b1       	in	r24, 0x0d	; 13
    21f8:	8f 77       	andi	r24, 0x7F	; 127
    21fa:	8d b9       	out	0x0d, r24	; 13

000021fc <.Loc.81>:
    21fc:	08 95       	ret

000021fe <SPI_voidStart>:
    21fe:	8d b1       	in	r24, 0x0d	; 13
    2200:	80 64       	ori	r24, 0x40	; 64
    2202:	8d b9       	out	0x0d, r24	; 13

00002204 <.Loc.84>:
    2204:	08 95       	ret

00002206 <SPI_voidStop>:
    2206:	8d b1       	in	r24, 0x0d	; 13
    2208:	8f 7b       	andi	r24, 0xBF	; 191
    220a:	8d b9       	out	0x0d, r24	; 13

0000220c <.Loc.87>:
    220c:	08 95       	ret

0000220e <SPI_voidSendByte>:
    220e:	8f b9       	out	0x0f, r24	; 15

00002210 <.L24>:
    2210:	77 9b       	sbis	0x0e, 7	; 14
    2212:	fe cf       	rjmp	.-4      	; 0x2210 <.L24>

00002214 <.Loc.93>:
    2214:	08 95       	ret

00002216 <SPI_enuReceiveByte>:
    2216:	77 9b       	sbis	0x0e, 7	; 14
    2218:	fe cf       	rjmp	.-4      	; 0x2216 <SPI_enuReceiveByte>

0000221a <.Loc.96>:
    221a:	8f b1       	in	r24, 0x0f	; 15

0000221c <.Loc.98>:
    221c:	08 95       	ret

0000221e <SPI_enuSendReceiveByte>:
    221e:	8f b9       	out	0x0f, r24	; 15

00002220 <.L28>:
    2220:	77 9b       	sbis	0x0e, 7	; 14
    2222:	fe cf       	rjmp	.-4      	; 0x2220 <.L28>

00002224 <.Loc.104>:
    2224:	8f b1       	in	r24, 0x0f	; 15

00002226 <.LVL39>:
    2226:	08 95       	ret

00002228 <TMR0_SyncDelayISR>:
    2228:	80 91 3f 01 	lds	r24, 0x013F	; 0x80013f <Copy_u32DelayCountSync>
    222c:	90 91 40 01 	lds	r25, 0x0140	; 0x800140 <Copy_u32DelayCountSync+0x1>
    2230:	a0 91 41 01 	lds	r26, 0x0141	; 0x800141 <Copy_u32DelayCountSync+0x2>
    2234:	b0 91 42 01 	lds	r27, 0x0142	; 0x800142 <Copy_u32DelayCountSync+0x3>
    2238:	01 96       	adiw	r24, 0x01	; 1
    223a:	a1 1d       	adc	r26, r1
    223c:	b1 1d       	adc	r27, r1
    223e:	80 93 3f 01 	sts	0x013F, r24	; 0x80013f <Copy_u32DelayCountSync>
    2242:	90 93 40 01 	sts	0x0140, r25	; 0x800140 <Copy_u32DelayCountSync+0x1>
    2246:	a0 93 41 01 	sts	0x0141, r26	; 0x800141 <Copy_u32DelayCountSync+0x2>
    224a:	b0 93 42 01 	sts	0x0142, r27	; 0x800142 <Copy_u32DelayCountSync+0x3>

0000224e <.Loc.3>:
    224e:	08 95       	ret

00002250 <TMR0_AsyncDelayISR>:
    2250:	80 91 3b 01 	lds	r24, 0x013B	; 0x80013b <Copy_u32DelayCountAsync>
    2254:	90 91 3c 01 	lds	r25, 0x013C	; 0x80013c <Copy_u32DelayCountAsync+0x1>
    2258:	a0 91 3d 01 	lds	r26, 0x013D	; 0x80013d <Copy_u32DelayCountAsync+0x2>
    225c:	b0 91 3e 01 	lds	r27, 0x013E	; 0x80013e <Copy_u32DelayCountAsync+0x3>
    2260:	01 97       	sbiw	r24, 0x01	; 1
    2262:	a1 09       	sbc	r26, r1
    2264:	b1 09       	sbc	r27, r1

00002266 <.Loc.7>:
    2266:	80 93 3b 01 	sts	0x013B, r24	; 0x80013b <Copy_u32DelayCountAsync>
    226a:	90 93 3c 01 	sts	0x013C, r25	; 0x80013c <Copy_u32DelayCountAsync+0x1>
    226e:	a0 93 3d 01 	sts	0x013D, r26	; 0x80013d <Copy_u32DelayCountAsync+0x2>
    2272:	b0 93 3e 01 	sts	0x013E, r27	; 0x80013e <Copy_u32DelayCountAsync+0x3>
    2276:	89 2b       	or	r24, r25
    2278:	8a 2b       	or	r24, r26
    227a:	8b 2b       	or	r24, r27
    227c:	c1 f4       	brne	.+48     	; 0x22ae <.L2>

0000227e <.Loc.8>:
    227e:	e0 91 39 01 	lds	r30, 0x0139	; 0x800139 <TMR0_DelayCountAsyncFunc>
    2282:	f0 91 3a 01 	lds	r31, 0x013A	; 0x80013a <TMR0_DelayCountAsyncFunc+0x1>
    2286:	09 95       	icall

00002288 <.Loc.10>:
    2288:	80 91 34 01 	lds	r24, 0x0134	; 0x800134 <startValue>
    228c:	82 bf       	out	0x32, r24	; 50

0000228e <.Loc.11>:
    228e:	80 91 35 01 	lds	r24, 0x0135	; 0x800135 <overflowCount>
    2292:	90 91 36 01 	lds	r25, 0x0136	; 0x800136 <overflowCount+0x1>
    2296:	a0 91 37 01 	lds	r26, 0x0137	; 0x800137 <overflowCount+0x2>
    229a:	b0 91 38 01 	lds	r27, 0x0138	; 0x800138 <overflowCount+0x3>
    229e:	80 93 3b 01 	sts	0x013B, r24	; 0x80013b <Copy_u32DelayCountAsync>
    22a2:	90 93 3c 01 	sts	0x013C, r25	; 0x80013c <Copy_u32DelayCountAsync+0x1>
    22a6:	a0 93 3d 01 	sts	0x013D, r26	; 0x80013d <Copy_u32DelayCountAsync+0x2>
    22aa:	b0 93 3e 01 	sts	0x013E, r27	; 0x80013e <Copy_u32DelayCountAsync+0x3>

000022ae <.L2>:
    22ae:	08 95       	ret

000022b0 <__vector_11>:
    22b0:	1f 92       	push	r1

000022b2 <.LCFI0>:
    22b2:	0f 92       	push	r0

000022b4 <.LCFI1>:
    22b4:	0f b6       	in	r0, 0x3f	; 63
    22b6:	0f 92       	push	r0
    22b8:	11 24       	eor	r1, r1
    22ba:	2f 93       	push	r18

000022bc <.LCFI2>:
    22bc:	3f 93       	push	r19

000022be <.LCFI3>:
    22be:	4f 93       	push	r20

000022c0 <.LCFI4>:
    22c0:	5f 93       	push	r21

000022c2 <.LCFI5>:
    22c2:	6f 93       	push	r22

000022c4 <.LCFI6>:
    22c4:	7f 93       	push	r23

000022c6 <.LCFI7>:
    22c6:	8f 93       	push	r24

000022c8 <.LCFI8>:
    22c8:	9f 93       	push	r25

000022ca <.LCFI9>:
    22ca:	af 93       	push	r26

000022cc <.LCFI10>:
    22cc:	bf 93       	push	r27

000022ce <.LCFI11>:
    22ce:	ef 93       	push	r30

000022d0 <.LCFI12>:
    22d0:	ff 93       	push	r31

000022d2 <.LCFI13>:
    22d2:	e0 91 45 01 	lds	r30, 0x0145	; 0x800145 <TMR0_OverflowCallback>
    22d6:	f0 91 46 01 	lds	r31, 0x0146	; 0x800146 <TMR0_OverflowCallback+0x1>

000022da <.Loc.17>:
    22da:	30 97       	sbiw	r30, 0x00	; 0
    22dc:	09 f0       	breq	.+2      	; 0x22e0 <.L4>

000022de <.Loc.18>:
    22de:	09 95       	icall

000022e0 <.L4>:
    22e0:	ff 91       	pop	r31
    22e2:	ef 91       	pop	r30
    22e4:	bf 91       	pop	r27
    22e6:	af 91       	pop	r26
    22e8:	9f 91       	pop	r25
    22ea:	8f 91       	pop	r24
    22ec:	7f 91       	pop	r23
    22ee:	6f 91       	pop	r22
    22f0:	5f 91       	pop	r21
    22f2:	4f 91       	pop	r20
    22f4:	3f 91       	pop	r19
    22f6:	2f 91       	pop	r18
    22f8:	0f 90       	pop	r0
    22fa:	0f be       	out	0x3f, r0	; 63
    22fc:	0f 90       	pop	r0
    22fe:	1f 90       	pop	r1
    2300:	18 95       	reti

00002302 <__vector_10>:
    2302:	1f 92       	push	r1

00002304 <.LCFI14>:
    2304:	0f 92       	push	r0

00002306 <.LCFI15>:
    2306:	0f b6       	in	r0, 0x3f	; 63
    2308:	0f 92       	push	r0
    230a:	11 24       	eor	r1, r1
    230c:	2f 93       	push	r18

0000230e <.LCFI16>:
    230e:	3f 93       	push	r19

00002310 <.LCFI17>:
    2310:	4f 93       	push	r20

00002312 <.LCFI18>:
    2312:	5f 93       	push	r21

00002314 <.LCFI19>:
    2314:	6f 93       	push	r22

00002316 <.LCFI20>:
    2316:	7f 93       	push	r23

00002318 <.LCFI21>:
    2318:	8f 93       	push	r24

0000231a <.LCFI22>:
    231a:	9f 93       	push	r25

0000231c <.LCFI23>:
    231c:	af 93       	push	r26

0000231e <.LCFI24>:
    231e:	bf 93       	push	r27

00002320 <.LCFI25>:
    2320:	ef 93       	push	r30

00002322 <.LCFI26>:
    2322:	ff 93       	push	r31

00002324 <.LCFI27>:
    2324:	e0 91 43 01 	lds	r30, 0x0143	; 0x800143 <TMR0_CompareMatchCallBack>
    2328:	f0 91 44 01 	lds	r31, 0x0144	; 0x800144 <TMR0_CompareMatchCallBack+0x1>

0000232c <.Loc.23>:
    232c:	30 97       	sbiw	r30, 0x00	; 0
    232e:	09 f0       	breq	.+2      	; 0x2332 <.L6>

00002330 <.Loc.24>:
    2330:	09 95       	icall

00002332 <.L6>:
    2332:	ff 91       	pop	r31
    2334:	ef 91       	pop	r30
    2336:	bf 91       	pop	r27
    2338:	af 91       	pop	r26
    233a:	9f 91       	pop	r25
    233c:	8f 91       	pop	r24
    233e:	7f 91       	pop	r23
    2340:	6f 91       	pop	r22
    2342:	5f 91       	pop	r21
    2344:	4f 91       	pop	r20
    2346:	3f 91       	pop	r19
    2348:	2f 91       	pop	r18
    234a:	0f 90       	pop	r0
    234c:	0f be       	out	0x3f, r0	; 63
    234e:	0f 90       	pop	r0
    2350:	1f 90       	pop	r1
    2352:	18 95       	reti

00002354 <TMR0_enuInit>:
    2354:	0f 93       	push	r16

00002356 <.LCFI28>:
    2356:	1f 93       	push	r17

00002358 <.LCFI29>:
    2358:	cf 93       	push	r28

0000235a <.LCFI30>:
    235a:	df 93       	push	r29

0000235c <.LCFI31>:
    235c:	c8 2f       	mov	r28, r24
    235e:	16 2f       	mov	r17, r22
    2360:	d4 2f       	mov	r29, r20

00002362 <.Loc.28>:
    2362:	88 30       	cpi	r24, 0x08	; 8
    2364:	e8 f4       	brcc	.+58     	; 0x23a0 <.L11>

00002366 <.Loc.30>:
    2366:	86 2f       	mov	r24, r22

00002368 <.LVL4>:
    2368:	87 7b       	andi	r24, 0xB7	; 183
    236a:	81 11       	cpse	r24, r1
    236c:	1c c0       	rjmp	.+56     	; 0x23a6 <.L12>

0000236e <.Loc.32>:
    236e:	84 2f       	mov	r24, r20
    2370:	8f 7c       	andi	r24, 0xCF	; 207
    2372:	81 11       	cpse	r24, r1
    2374:	1b c0       	rjmp	.+54     	; 0x23ac <.L13>

00002376 <.Loc.33>:
    2376:	13 be       	out	0x33, r1	; 51

00002378 <.Loc.35>:
    2378:	0c bf       	out	0x3c, r16	; 60

0000237a <.Loc.37>:
    237a:	22 bf       	out	0x32, r18	; 50

0000237c <.LVL5>:
    237c:	41 11       	cpse	r20, r1
    237e:	0a c0       	rjmp	.+20     	; 0x2394 <.L15>

00002380 <.Loc.42>:
    2380:	80 e0       	ldi	r24, 0x00	; 0
    2382:	90 e0       	ldi	r25, 0x00	; 0

00002384 <.L10>:
    2384:	cd 0f       	add	r28, r29

00002386 <.LVL7>:
    2386:	c1 0f       	add	r28, r17

00002388 <.Loc.46>:
    2388:	c3 bf       	out	0x33, r28	; 51

0000238a <.L8>:
    238a:	df 91       	pop	r29

0000238c <.LVL9>:
    238c:	cf 91       	pop	r28
    238e:	1f 91       	pop	r17

00002390 <.LVL10>:
    2390:	0f 91       	pop	r16

00002392 <.LVL11>:
    2392:	08 95       	ret

00002394 <.L15>:
    2394:	41 e0       	ldi	r20, 0x01	; 1

00002396 <.LVL13>:
    2396:	63 e0       	ldi	r22, 0x03	; 3
    2398:	82 e0       	ldi	r24, 0x02	; 2
    239a:	0e 94 5c 0d 	call	0x1ab8	; 0x1ab8 <DIO_enuSetPinDirection>

0000239e <.LVL14>:
    239e:	f2 cf       	rjmp	.-28     	; 0x2384 <.L10>

000023a0 <.L11>:
    23a0:	84 e0       	ldi	r24, 0x04	; 4

000023a2 <.LVL16>:
    23a2:	90 e0       	ldi	r25, 0x00	; 0
    23a4:	f2 cf       	rjmp	.-28     	; 0x238a <.L8>

000023a6 <.L12>:
    23a6:	84 e0       	ldi	r24, 0x04	; 4
    23a8:	90 e0       	ldi	r25, 0x00	; 0
    23aa:	ef cf       	rjmp	.-34     	; 0x238a <.L8>

000023ac <.L13>:
    23ac:	84 e0       	ldi	r24, 0x04	; 4
    23ae:	90 e0       	ldi	r25, 0x00	; 0
    23b0:	ec cf       	rjmp	.-40     	; 0x238a <.L8>

000023b2 <TMR0_SetPreload>:
    23b2:	82 bf       	out	0x32, r24	; 50

000023b4 <.Loc.61>:
    23b4:	08 95       	ret

000023b6 <TMR0_SetOutputCompareValue>:
    23b6:	8c bf       	out	0x3c, r24	; 60

000023b8 <.Loc.65>:
    23b8:	08 95       	ret

000023ba <TMR0_EnableOverflowInterrupt>:
    23ba:	89 b7       	in	r24, 0x39	; 57
    23bc:	81 60       	ori	r24, 0x01	; 1
    23be:	89 bf       	out	0x39, r24	; 57

000023c0 <.Loc.68>:
    23c0:	08 95       	ret

000023c2 <TMR0_enuSetOverflowCallback>:
    23c2:	28 2f       	mov	r18, r24
    23c4:	39 2f       	mov	r19, r25

000023c6 <.Loc.71>:
    23c6:	21 15       	cp	r18, r1
    23c8:	31 05       	cpc	r19, r1
    23ca:	39 f0       	breq	.+14     	; 0x23da <.L21>

000023cc <.Loc.73>:
    23cc:	30 93 46 01 	sts	0x0146, r19	; 0x800146 <TMR0_OverflowCallback+0x1>
    23d0:	20 93 45 01 	sts	0x0145, r18	; 0x800145 <TMR0_OverflowCallback>

000023d4 <.Loc.75>:
    23d4:	80 e0       	ldi	r24, 0x00	; 0
    23d6:	90 e0       	ldi	r25, 0x00	; 0

000023d8 <.LVL20>:
    23d8:	08 95       	ret

000023da <.L21>:
    23da:	82 e0       	ldi	r24, 0x02	; 2
    23dc:	90 e0       	ldi	r25, 0x00	; 0

000023de <.LVL22>:
    23de:	08 95       	ret

000023e0 <TMR0_DisableOverflowInterrupt>:
    23e0:	89 b7       	in	r24, 0x39	; 57
    23e2:	8e 7f       	andi	r24, 0xFE	; 254
    23e4:	89 bf       	out	0x39, r24	; 57

000023e6 <.Loc.82>:
    23e6:	08 95       	ret

000023e8 <TMR0_enuSetCompareMatchCallback>:
    23e8:	28 2f       	mov	r18, r24
    23ea:	39 2f       	mov	r19, r25

000023ec <.Loc.85>:
    23ec:	21 15       	cp	r18, r1
    23ee:	31 05       	cpc	r19, r1
    23f0:	39 f0       	breq	.+14     	; 0x2400 <.L25>

000023f2 <.Loc.87>:
    23f2:	30 93 44 01 	sts	0x0144, r19	; 0x800144 <TMR0_CompareMatchCallBack+0x1>
    23f6:	20 93 43 01 	sts	0x0143, r18	; 0x800143 <TMR0_CompareMatchCallBack>

000023fa <.Loc.89>:
    23fa:	80 e0       	ldi	r24, 0x00	; 0
    23fc:	90 e0       	ldi	r25, 0x00	; 0

000023fe <.LVL24>:
    23fe:	08 95       	ret

00002400 <.L25>:
    2400:	82 e0       	ldi	r24, 0x02	; 2
    2402:	90 e0       	ldi	r25, 0x00	; 0

00002404 <.LVL26>:
    2404:	08 95       	ret

00002406 <TMR0_EnableCompareMatchInterrupt>:
    2406:	89 b7       	in	r24, 0x39	; 57
    2408:	82 60       	ori	r24, 0x02	; 2
    240a:	89 bf       	out	0x39, r24	; 57

0000240c <.Loc.96>:
    240c:	08 95       	ret

0000240e <TMR0_DisableCompareMatchInterrupt>:
    240e:	89 b7       	in	r24, 0x39	; 57
    2410:	8d 7f       	andi	r24, 0xFD	; 253
    2412:	89 bf       	out	0x39, r24	; 57

00002414 <.Loc.99>:
    2414:	08 95       	ret

00002416 <TMR0_StopTimer0>:
    2416:	13 be       	out	0x33, r1	; 51

00002418 <.Loc.103>:
    2418:	08 95       	ret

0000241a <TMR0_enuBusyWaitms>:
    241a:	cf 92       	push	r12

0000241c <.LCFI32>:
    241c:	df 92       	push	r13

0000241e <.LCFI33>:
    241e:	ef 92       	push	r14

00002420 <.LCFI34>:
    2420:	ff 92       	push	r15

00002422 <.LCFI35>:
    2422:	0f 93       	push	r16

00002424 <.LCFI36>:
    2424:	1f 93       	push	r17

00002426 <.LCFI37>:
    2426:	cf 93       	push	r28

00002428 <.LCFI38>:
    2428:	df 93       	push	r29

0000242a <.LCFI39>:
    242a:	00 d0       	rcall	.+0      	; 0x242c <L0^A>

0000242c <L0^A>:
    242c:	00 d0       	rcall	.+0      	; 0x242e <L0^A>

0000242e <L0^A>:
    242e:	00 d0       	rcall	.+0      	; 0x2430 <L0^A>

00002430 <L0^A>:
    2430:	cd b7       	in	r28, 0x3d	; 61
    2432:	de b7       	in	r29, 0x3e	; 62

00002434 <.LCFI41>:
    2434:	69 83       	std	Y+1, r22	; 0x01
    2436:	7a 83       	std	Y+2, r23	; 0x02
    2438:	8b 83       	std	Y+3, r24	; 0x03
    243a:	9c 83       	std	Y+4, r25	; 0x04

0000243c <.Loc.106>:
    243c:	89 81       	ldd	r24, Y+1	; 0x01
    243e:	9a 81       	ldd	r25, Y+2	; 0x02
    2440:	ab 81       	ldd	r26, Y+3	; 0x03
    2442:	bc 81       	ldd	r27, Y+4	; 0x04
    2444:	89 2b       	or	r24, r25
    2446:	8a 2b       	or	r24, r26
    2448:	8b 2b       	or	r24, r27
    244a:	09 f4       	brne	.+2      	; 0x244e <.Loc.108>

0000244c <L0^A>:
    244c:	96 c0       	rjmp	.+300    	; 0x257a <.L33>

0000244e <.Loc.108>:
    244e:	13 be       	out	0x33, r1	; 51

00002450 <.LVL28>:
    2450:	69 81       	ldd	r22, Y+1	; 0x01
    2452:	7a 81       	ldd	r23, Y+2	; 0x02
    2454:	8b 81       	ldd	r24, Y+3	; 0x03
    2456:	9c 81       	ldd	r25, Y+4	; 0x04

00002458 <.LVL29>:
    2458:	0e 94 8b 1a 	call	0x3516	; 0x3516 <__floatunsisf>

0000245c <.LVL30>:
    245c:	2f e6       	ldi	r18, 0x6F	; 111
    245e:	32 e1       	ldi	r19, 0x12	; 18
    2460:	43 e0       	ldi	r20, 0x03	; 3
    2462:	52 e4       	ldi	r21, 0x42	; 66
    2464:	69 83       	std	Y+1, r22	; 0x01
    2466:	7a 83       	std	Y+2, r23	; 0x02
    2468:	8b 83       	std	Y+3, r24	; 0x03
    246a:	9c 83       	std	Y+4, r25	; 0x04
    246c:	69 81       	ldd	r22, Y+1	; 0x01
    246e:	7a 81       	ldd	r23, Y+2	; 0x02
    2470:	8b 81       	ldd	r24, Y+3	; 0x03
    2472:	9c 81       	ldd	r25, Y+4	; 0x04
    2474:	0e 94 e3 19 	call	0x33c6	; 0x33c6 <__divsf3>

00002478 <.LVL31>:
    2478:	8e 83       	std	Y+6, r24	; 0x06
    247a:	9d 83       	std	Y+5, r25	; 0x05

0000247c <.LVL32>:
    247c:	69 83       	std	Y+1, r22	; 0x01
    247e:	7a 83       	std	Y+2, r23	; 0x02
    2480:	8b 83       	std	Y+3, r24	; 0x03
    2482:	9c 83       	std	Y+4, r25	; 0x04
    2484:	69 81       	ldd	r22, Y+1	; 0x01
    2486:	7a 81       	ldd	r23, Y+2	; 0x02
    2488:	8b 81       	ldd	r24, Y+3	; 0x03
    248a:	9c 81       	ldd	r25, Y+4	; 0x04

0000248c <.LVL33>:
    248c:	0e 94 5c 1a 	call	0x34b8	; 0x34b8 <__fixunssfsi>

00002490 <.LVL34>:
    2490:	c6 2e       	mov	r12, r22
    2492:	d7 2e       	mov	r13, r23
    2494:	e8 2e       	mov	r14, r24
    2496:	f9 2e       	mov	r15, r25

00002498 <.LVL35>:
    2498:	c7 01       	movw	r24, r14
    249a:	b6 01       	movw	r22, r12
    249c:	0e 94 8b 1a 	call	0x3516	; 0x3516 <__floatunsisf>

000024a0 <.LVL36>:
    24a0:	26 2f       	mov	r18, r22
    24a2:	37 2f       	mov	r19, r23
    24a4:	48 2f       	mov	r20, r24
    24a6:	59 2f       	mov	r21, r25
    24a8:	69 81       	ldd	r22, Y+1	; 0x01
    24aa:	7a 81       	ldd	r23, Y+2	; 0x02
    24ac:	8b 81       	ldd	r24, Y+3	; 0x03
    24ae:	9c 81       	ldd	r25, Y+4	; 0x04
    24b0:	0e 94 76 19 	call	0x32ec	; 0x32ec <__subsf3>

000024b4 <.LVL37>:
    24b4:	26 2f       	mov	r18, r22
    24b6:	37 2f       	mov	r19, r23
    24b8:	48 2f       	mov	r20, r24
    24ba:	59 2f       	mov	r21, r25
    24bc:	60 e0       	ldi	r22, 0x00	; 0
    24be:	70 e0       	ldi	r23, 0x00	; 0
    24c0:	80 e8       	ldi	r24, 0x80	; 128
    24c2:	9f e3       	ldi	r25, 0x3F	; 63
    24c4:	0e 94 76 19 	call	0x32ec	; 0x32ec <__subsf3>

000024c8 <.LVL38>:
    24c8:	20 e0       	ldi	r18, 0x00	; 0
    24ca:	30 e0       	ldi	r19, 0x00	; 0
    24cc:	4f e7       	ldi	r20, 0x7F	; 127
    24ce:	53 e4       	ldi	r21, 0x43	; 67
    24d0:	69 83       	std	Y+1, r22	; 0x01

000024d2 <.LVL39>:
    24d2:	7a 83       	std	Y+2, r23	; 0x02
    24d4:	8b 83       	std	Y+3, r24	; 0x03
    24d6:	9c 83       	std	Y+4, r25	; 0x04
    24d8:	69 81       	ldd	r22, Y+1	; 0x01
    24da:	7a 81       	ldd	r23, Y+2	; 0x02
    24dc:	8b 81       	ldd	r24, Y+3	; 0x03
    24de:	9c 81       	ldd	r25, Y+4	; 0x04
    24e0:	0e 94 19 1b 	call	0x3632	; 0x3632 <__mulsf3>

000024e4 <.LVL40>:
    24e4:	69 83       	std	Y+1, r22	; 0x01
    24e6:	7a 83       	std	Y+2, r23	; 0x02
    24e8:	8b 83       	std	Y+3, r24	; 0x03
    24ea:	9c 83       	std	Y+4, r25	; 0x04
    24ec:	69 81       	ldd	r22, Y+1	; 0x01
    24ee:	7a 81       	ldd	r23, Y+2	; 0x02
    24f0:	8b 81       	ldd	r24, Y+3	; 0x03
    24f2:	9c 81       	ldd	r25, Y+4	; 0x04
    24f4:	0e 94 5c 1a 	call	0x34b8	; 0x34b8 <__fixunssfsi>

000024f8 <.LVL41>:
    24f8:	26 2f       	mov	r18, r22

000024fa <.LVL42>:
    24fa:	66 23       	and	r22, r22
    24fc:	29 f0       	breq	.+10     	; 0x2508 <.L31>

000024fe <.Loc.127>:
    24fe:	bf ef       	ldi	r27, 0xFF	; 255
    2500:	cb 1a       	sub	r12, r27
    2502:	db 0a       	sbc	r13, r27
    2504:	eb 0a       	sbc	r14, r27
    2506:	fb 0a       	sbc	r15, r27

00002508 <.L31>:
    2508:	10 92 3f 01 	sts	0x013F, r1	; 0x80013f <Copy_u32DelayCountSync>
    250c:	10 92 40 01 	sts	0x0140, r1	; 0x800140 <Copy_u32DelayCountSync+0x1>
    2510:	10 92 41 01 	sts	0x0141, r1	; 0x800141 <Copy_u32DelayCountSync+0x2>
    2514:	10 92 42 01 	sts	0x0142, r1	; 0x800142 <Copy_u32DelayCountSync+0x3>

00002518 <.Loc.131>:
    2518:	84 e1       	ldi	r24, 0x14	; 20
    251a:	91 e1       	ldi	r25, 0x11	; 17
    251c:	90 93 46 01 	sts	0x0146, r25	; 0x800146 <TMR0_OverflowCallback+0x1>
    2520:	80 93 45 01 	sts	0x0145, r24	; 0x800145 <TMR0_OverflowCallback>

00002524 <.Loc.133>:
    2524:	89 b7       	in	r24, 0x39	; 57
    2526:	81 60       	ori	r24, 0x01	; 1
    2528:	89 bf       	out	0x39, r24	; 57

0000252a <.Loc.134>:
    252a:	00 e0       	ldi	r16, 0x00	; 0
    252c:	40 e0       	ldi	r20, 0x00	; 0
    252e:	60 e0       	ldi	r22, 0x00	; 0
    2530:	85 e0       	ldi	r24, 0x05	; 5
    2532:	0e 94 aa 11 	call	0x2354	; 0x2354 <TMR0_enuInit>

00002536 <.LVL44>:
    2536:	00 97       	sbiw	r24, 0x00	; 0
    2538:	89 f4       	brne	.+34     	; 0x255c <.L29>

0000253a <.L32>:
    253a:	40 91 3f 01 	lds	r20, 0x013F	; 0x80013f <Copy_u32DelayCountSync>
    253e:	50 91 40 01 	lds	r21, 0x0140	; 0x800140 <Copy_u32DelayCountSync+0x1>
    2542:	60 91 41 01 	lds	r22, 0x0141	; 0x800141 <Copy_u32DelayCountSync+0x2>
    2546:	70 91 42 01 	lds	r23, 0x0142	; 0x800142 <Copy_u32DelayCountSync+0x3>

0000254a <.Loc.141>:
    254a:	4c 15       	cp	r20, r12
    254c:	5d 05       	cpc	r21, r13
    254e:	6e 05       	cpc	r22, r14
    2550:	7f 05       	cpc	r23, r15
    2552:	98 f3       	brcs	.-26     	; 0x253a <.L32>

00002554 <.Loc.142>:
    2554:	13 be       	out	0x33, r1	; 51

00002556 <.Loc.144>:
    2556:	29 b7       	in	r18, 0x39	; 57
    2558:	2e 7f       	andi	r18, 0xFE	; 254
    255a:	29 bf       	out	0x39, r18	; 57

0000255c <.L29>:
    255c:	0f 90       	pop	r0
    255e:	0f 90       	pop	r0
    2560:	0f 90       	pop	r0
    2562:	0f 90       	pop	r0
    2564:	0f 90       	pop	r0
    2566:	0f 90       	pop	r0
    2568:	df 91       	pop	r29
    256a:	cf 91       	pop	r28
    256c:	1f 91       	pop	r17
    256e:	0f 91       	pop	r16
    2570:	ff 90       	pop	r15
    2572:	ef 90       	pop	r14
    2574:	df 90       	pop	r13
    2576:	cf 90       	pop	r12
    2578:	08 95       	ret

0000257a <.L33>:
    257a:	80 e0       	ldi	r24, 0x00	; 0
    257c:	90 e0       	ldi	r25, 0x00	; 0
    257e:	ee cf       	rjmp	.-36     	; 0x255c <.L29>

00002580 <TMR0_enuBusyWaitus>:
    2580:	cf 92       	push	r12

00002582 <.LCFI42>:
    2582:	df 92       	push	r13

00002584 <.LCFI43>:
    2584:	ef 92       	push	r14

00002586 <.LCFI44>:
    2586:	ff 92       	push	r15

00002588 <.LCFI45>:
    2588:	0f 93       	push	r16

0000258a <.LCFI46>:
    258a:	1f 93       	push	r17

0000258c <.LCFI47>:
    258c:	cf 93       	push	r28

0000258e <.LCFI48>:
    258e:	df 93       	push	r29

00002590 <.LCFI49>:
    2590:	00 d0       	rcall	.+0      	; 0x2592 <L0^A>

00002592 <L0^A>:
    2592:	00 d0       	rcall	.+0      	; 0x2594 <L0^A>

00002594 <L0^A>:
    2594:	00 d0       	rcall	.+0      	; 0x2596 <L0^A>

00002596 <L0^A>:
    2596:	cd b7       	in	r28, 0x3d	; 61
    2598:	de b7       	in	r29, 0x3e	; 62

0000259a <.LCFI51>:
    259a:	69 83       	std	Y+1, r22	; 0x01
    259c:	7a 83       	std	Y+2, r23	; 0x02
    259e:	8b 83       	std	Y+3, r24	; 0x03
    25a0:	9c 83       	std	Y+4, r25	; 0x04

000025a2 <.Loc.150>:
    25a2:	89 81       	ldd	r24, Y+1	; 0x01
    25a4:	9a 81       	ldd	r25, Y+2	; 0x02
    25a6:	ab 81       	ldd	r26, Y+3	; 0x03
    25a8:	bc 81       	ldd	r27, Y+4	; 0x04
    25aa:	89 2b       	or	r24, r25
    25ac:	8a 2b       	or	r24, r26
    25ae:	8b 2b       	or	r24, r27
    25b0:	09 f4       	brne	.+2      	; 0x25b4 <.Loc.152>

000025b2 <L0^A>:
    25b2:	96 c0       	rjmp	.+300    	; 0x26e0 <.L38>

000025b4 <.Loc.152>:
    25b4:	13 be       	out	0x33, r1	; 51

000025b6 <.LVL48>:
    25b6:	69 81       	ldd	r22, Y+1	; 0x01
    25b8:	7a 81       	ldd	r23, Y+2	; 0x02
    25ba:	8b 81       	ldd	r24, Y+3	; 0x03
    25bc:	9c 81       	ldd	r25, Y+4	; 0x04

000025be <.LVL49>:
    25be:	0e 94 8b 1a 	call	0x3516	; 0x3516 <__floatunsisf>

000025c2 <.LVL50>:
    25c2:	20 e0       	ldi	r18, 0x00	; 0
    25c4:	30 e0       	ldi	r19, 0x00	; 0
    25c6:	40 e0       	ldi	r20, 0x00	; 0
    25c8:	5d e3       	ldi	r21, 0x3D	; 61
    25ca:	69 83       	std	Y+1, r22	; 0x01
    25cc:	7a 83       	std	Y+2, r23	; 0x02
    25ce:	8b 83       	std	Y+3, r24	; 0x03
    25d0:	9c 83       	std	Y+4, r25	; 0x04
    25d2:	69 81       	ldd	r22, Y+1	; 0x01
    25d4:	7a 81       	ldd	r23, Y+2	; 0x02
    25d6:	8b 81       	ldd	r24, Y+3	; 0x03
    25d8:	9c 81       	ldd	r25, Y+4	; 0x04
    25da:	0e 94 19 1b 	call	0x3632	; 0x3632 <__mulsf3>

000025de <.LVL51>:
    25de:	8e 83       	std	Y+6, r24	; 0x06
    25e0:	9d 83       	std	Y+5, r25	; 0x05

000025e2 <.LVL52>:
    25e2:	69 83       	std	Y+1, r22	; 0x01
    25e4:	7a 83       	std	Y+2, r23	; 0x02
    25e6:	8b 83       	std	Y+3, r24	; 0x03
    25e8:	9c 83       	std	Y+4, r25	; 0x04
    25ea:	69 81       	ldd	r22, Y+1	; 0x01
    25ec:	7a 81       	ldd	r23, Y+2	; 0x02
    25ee:	8b 81       	ldd	r24, Y+3	; 0x03
    25f0:	9c 81       	ldd	r25, Y+4	; 0x04

000025f2 <.LVL53>:
    25f2:	0e 94 5c 1a 	call	0x34b8	; 0x34b8 <__fixunssfsi>

000025f6 <.LVL54>:
    25f6:	c6 2e       	mov	r12, r22
    25f8:	d7 2e       	mov	r13, r23
    25fa:	e8 2e       	mov	r14, r24
    25fc:	f9 2e       	mov	r15, r25

000025fe <.LVL55>:
    25fe:	c7 01       	movw	r24, r14
    2600:	b6 01       	movw	r22, r12
    2602:	0e 94 8b 1a 	call	0x3516	; 0x3516 <__floatunsisf>

00002606 <.LVL56>:
    2606:	26 2f       	mov	r18, r22
    2608:	37 2f       	mov	r19, r23
    260a:	48 2f       	mov	r20, r24
    260c:	59 2f       	mov	r21, r25
    260e:	69 81       	ldd	r22, Y+1	; 0x01
    2610:	7a 81       	ldd	r23, Y+2	; 0x02
    2612:	8b 81       	ldd	r24, Y+3	; 0x03
    2614:	9c 81       	ldd	r25, Y+4	; 0x04
    2616:	0e 94 76 19 	call	0x32ec	; 0x32ec <__subsf3>

0000261a <.LVL57>:
    261a:	26 2f       	mov	r18, r22
    261c:	37 2f       	mov	r19, r23
    261e:	48 2f       	mov	r20, r24
    2620:	59 2f       	mov	r21, r25
    2622:	60 e0       	ldi	r22, 0x00	; 0
    2624:	70 e0       	ldi	r23, 0x00	; 0
    2626:	80 e8       	ldi	r24, 0x80	; 128
    2628:	9f e3       	ldi	r25, 0x3F	; 63
    262a:	0e 94 76 19 	call	0x32ec	; 0x32ec <__subsf3>

0000262e <.LVL58>:
    262e:	20 e0       	ldi	r18, 0x00	; 0
    2630:	30 e0       	ldi	r19, 0x00	; 0
    2632:	4f e7       	ldi	r20, 0x7F	; 127
    2634:	53 e4       	ldi	r21, 0x43	; 67
    2636:	69 83       	std	Y+1, r22	; 0x01

00002638 <.LVL59>:
    2638:	7a 83       	std	Y+2, r23	; 0x02
    263a:	8b 83       	std	Y+3, r24	; 0x03
    263c:	9c 83       	std	Y+4, r25	; 0x04
    263e:	69 81       	ldd	r22, Y+1	; 0x01
    2640:	7a 81       	ldd	r23, Y+2	; 0x02
    2642:	8b 81       	ldd	r24, Y+3	; 0x03
    2644:	9c 81       	ldd	r25, Y+4	; 0x04
    2646:	0e 94 19 1b 	call	0x3632	; 0x3632 <__mulsf3>

0000264a <.LVL60>:
    264a:	69 83       	std	Y+1, r22	; 0x01
    264c:	7a 83       	std	Y+2, r23	; 0x02
    264e:	8b 83       	std	Y+3, r24	; 0x03
    2650:	9c 83       	std	Y+4, r25	; 0x04
    2652:	69 81       	ldd	r22, Y+1	; 0x01
    2654:	7a 81       	ldd	r23, Y+2	; 0x02
    2656:	8b 81       	ldd	r24, Y+3	; 0x03
    2658:	9c 81       	ldd	r25, Y+4	; 0x04
    265a:	0e 94 5c 1a 	call	0x34b8	; 0x34b8 <__fixunssfsi>

0000265e <.LVL61>:
    265e:	26 2f       	mov	r18, r22

00002660 <.LVL62>:
    2660:	66 23       	and	r22, r22
    2662:	29 f0       	breq	.+10     	; 0x266e <.L36>

00002664 <.Loc.171>:
    2664:	bf ef       	ldi	r27, 0xFF	; 255
    2666:	cb 1a       	sub	r12, r27
    2668:	db 0a       	sbc	r13, r27
    266a:	eb 0a       	sbc	r14, r27
    266c:	fb 0a       	sbc	r15, r27

0000266e <.L36>:
    266e:	10 92 3f 01 	sts	0x013F, r1	; 0x80013f <Copy_u32DelayCountSync>
    2672:	10 92 40 01 	sts	0x0140, r1	; 0x800140 <Copy_u32DelayCountSync+0x1>
    2676:	10 92 41 01 	sts	0x0141, r1	; 0x800141 <Copy_u32DelayCountSync+0x2>
    267a:	10 92 42 01 	sts	0x0142, r1	; 0x800142 <Copy_u32DelayCountSync+0x3>

0000267e <.Loc.175>:
    267e:	84 e1       	ldi	r24, 0x14	; 20
    2680:	91 e1       	ldi	r25, 0x11	; 17
    2682:	90 93 46 01 	sts	0x0146, r25	; 0x800146 <TMR0_OverflowCallback+0x1>
    2686:	80 93 45 01 	sts	0x0145, r24	; 0x800145 <TMR0_OverflowCallback>

0000268a <.Loc.177>:
    268a:	89 b7       	in	r24, 0x39	; 57
    268c:	81 60       	ori	r24, 0x01	; 1
    268e:	89 bf       	out	0x39, r24	; 57

00002690 <.Loc.178>:
    2690:	00 e0       	ldi	r16, 0x00	; 0
    2692:	40 e0       	ldi	r20, 0x00	; 0
    2694:	60 e0       	ldi	r22, 0x00	; 0
    2696:	81 e0       	ldi	r24, 0x01	; 1
    2698:	0e 94 aa 11 	call	0x2354	; 0x2354 <TMR0_enuInit>

0000269c <.LVL64>:
    269c:	00 97       	sbiw	r24, 0x00	; 0
    269e:	89 f4       	brne	.+34     	; 0x26c2 <.L34>

000026a0 <.L37>:
    26a0:	40 91 3f 01 	lds	r20, 0x013F	; 0x80013f <Copy_u32DelayCountSync>
    26a4:	50 91 40 01 	lds	r21, 0x0140	; 0x800140 <Copy_u32DelayCountSync+0x1>
    26a8:	60 91 41 01 	lds	r22, 0x0141	; 0x800141 <Copy_u32DelayCountSync+0x2>
    26ac:	70 91 42 01 	lds	r23, 0x0142	; 0x800142 <Copy_u32DelayCountSync+0x3>

000026b0 <.Loc.185>:
    26b0:	4c 15       	cp	r20, r12
    26b2:	5d 05       	cpc	r21, r13
    26b4:	6e 05       	cpc	r22, r14
    26b6:	7f 05       	cpc	r23, r15
    26b8:	98 f3       	brcs	.-26     	; 0x26a0 <.L37>

000026ba <.Loc.186>:
    26ba:	13 be       	out	0x33, r1	; 51

000026bc <.Loc.188>:
    26bc:	29 b7       	in	r18, 0x39	; 57
    26be:	2e 7f       	andi	r18, 0xFE	; 254
    26c0:	29 bf       	out	0x39, r18	; 57

000026c2 <.L34>:
    26c2:	0f 90       	pop	r0
    26c4:	0f 90       	pop	r0
    26c6:	0f 90       	pop	r0
    26c8:	0f 90       	pop	r0
    26ca:	0f 90       	pop	r0
    26cc:	0f 90       	pop	r0
    26ce:	df 91       	pop	r29
    26d0:	cf 91       	pop	r28
    26d2:	1f 91       	pop	r17
    26d4:	0f 91       	pop	r16
    26d6:	ff 90       	pop	r15
    26d8:	ef 90       	pop	r14
    26da:	df 90       	pop	r13
    26dc:	cf 90       	pop	r12
    26de:	08 95       	ret

000026e0 <.L38>:
    26e0:	80 e0       	ldi	r24, 0x00	; 0
    26e2:	90 e0       	ldi	r25, 0x00	; 0
    26e4:	ee cf       	rjmp	.-36     	; 0x26c2 <.L34>

000026e6 <TMR0_enuSetDuty>:
    26e6:	0f 93       	push	r16

000026e8 <.LCFI52>:
    26e8:	cf 93       	push	r28

000026ea <.LCFI53>:
    26ea:	df 93       	push	r29

000026ec <.LCFI54>:
    26ec:	00 d0       	rcall	.+0      	; 0x26ee <L0^A>

000026ee <L0^A>:
    26ee:	00 d0       	rcall	.+0      	; 0x26f0 <L0^A>

000026f0 <L0^A>:
    26f0:	cd b7       	in	r28, 0x3d	; 61
    26f2:	de b7       	in	r29, 0x3e	; 62

000026f4 <.LCFI56>:
    26f4:	85 36       	cpi	r24, 0x65	; 101
    26f6:	b8 f5       	brcc	.+110    	; 0x2766 <.L41>

000026f8 <.Loc.196>:
    26f8:	2f ef       	ldi	r18, 0xFF	; 255
    26fa:	82 9f       	mul	r24, r18
    26fc:	c0 01       	movw	r24, r0
    26fe:	11 24       	eor	r1, r1

00002700 <.LVL68>:
    2700:	9c 01       	movw	r18, r24
    2702:	99 0f       	add	r25, r25
    2704:	44 0b       	sbc	r20, r20
    2706:	55 0b       	sbc	r21, r21
    2708:	29 83       	std	Y+1, r18	; 0x01
    270a:	3a 83       	std	Y+2, r19	; 0x02
    270c:	4b 83       	std	Y+3, r20	; 0x03
    270e:	5c 83       	std	Y+4, r21	; 0x04
    2710:	ca 01       	movw	r24, r20
    2712:	b9 01       	movw	r22, r18
    2714:	0e 94 8d 1a 	call	0x351a	; 0x351a <__floatsisf>

00002718 <.LVL69>:
    2718:	20 e0       	ldi	r18, 0x00	; 0
    271a:	30 e0       	ldi	r19, 0x00	; 0
    271c:	48 ec       	ldi	r20, 0xC8	; 200
    271e:	52 e4       	ldi	r21, 0x42	; 66
    2720:	69 83       	std	Y+1, r22	; 0x01
    2722:	7a 83       	std	Y+2, r23	; 0x02
    2724:	8b 83       	std	Y+3, r24	; 0x03
    2726:	9c 83       	std	Y+4, r25	; 0x04
    2728:	69 81       	ldd	r22, Y+1	; 0x01
    272a:	7a 81       	ldd	r23, Y+2	; 0x02
    272c:	8b 81       	ldd	r24, Y+3	; 0x03
    272e:	9c 81       	ldd	r25, Y+4	; 0x04
    2730:	0e 94 e3 19 	call	0x33c6	; 0x33c6 <__divsf3>

00002734 <.LVL70>:
    2734:	69 83       	std	Y+1, r22	; 0x01
    2736:	7a 83       	std	Y+2, r23	; 0x02
    2738:	8b 83       	std	Y+3, r24	; 0x03
    273a:	9c 83       	std	Y+4, r25	; 0x04
    273c:	69 81       	ldd	r22, Y+1	; 0x01
    273e:	7a 81       	ldd	r23, Y+2	; 0x02
    2740:	8b 81       	ldd	r24, Y+3	; 0x03
    2742:	9c 81       	ldd	r25, Y+4	; 0x04
    2744:	0e 94 5c 1a 	call	0x34b8	; 0x34b8 <__fixunssfsi>

00002748 <.LVL71>:
    2748:	06 2f       	mov	r16, r22

0000274a <.LVL72>:
    274a:	20 e0       	ldi	r18, 0x00	; 0
    274c:	40 e2       	ldi	r20, 0x20	; 32
    274e:	68 e4       	ldi	r22, 0x48	; 72
    2750:	82 e0       	ldi	r24, 0x02	; 2
    2752:	0e 94 aa 11 	call	0x2354	; 0x2354 <TMR0_enuInit>

00002756 <.L39>:
    2756:	0f 90       	pop	r0
    2758:	0f 90       	pop	r0
    275a:	0f 90       	pop	r0
    275c:	0f 90       	pop	r0
    275e:	df 91       	pop	r29
    2760:	cf 91       	pop	r28
    2762:	0f 91       	pop	r16
    2764:	08 95       	ret

00002766 <.L41>:
    2766:	84 e0       	ldi	r24, 0x04	; 4

00002768 <.LVL75>:
    2768:	90 e0       	ldi	r25, 0x00	; 0
    276a:	f5 cf       	rjmp	.-22     	; 0x2756 <.L39>

0000276c <TMR0_enuDelayedExecutionContiniuousms>:
    276c:	ef 92       	push	r14

0000276e <.LCFI57>:
    276e:	ff 92       	push	r15

00002770 <.LCFI58>:
    2770:	0f 93       	push	r16

00002772 <.LCFI59>:
    2772:	1f 93       	push	r17

00002774 <.LCFI60>:
    2774:	cf 93       	push	r28

00002776 <.LCFI61>:
    2776:	df 93       	push	r29

00002778 <.LCFI62>:
    2778:	cd b7       	in	r28, 0x3d	; 61
    277a:	de b7       	in	r29, 0x3e	; 62

0000277c <.LCFI63>:
    277c:	2a 97       	sbiw	r28, 0x0a	; 10

0000277e <.LCFI64>:
    277e:	0f b6       	in	r0, 0x3f	; 63
    2780:	f8 94       	cli
    2782:	de bf       	out	0x3e, r29	; 62
    2784:	0f be       	out	0x3f, r0	; 63
    2786:	cd bf       	out	0x3d, r28	; 61
    2788:	49 87       	std	Y+9, r20	; 0x09
    278a:	5a 87       	std	Y+10, r21	; 0x0a

0000278c <.Loc.207>:
    278c:	29 85       	ldd	r18, Y+9	; 0x09
    278e:	3a 85       	ldd	r19, Y+10	; 0x0a
    2790:	23 2b       	or	r18, r19
    2792:	09 f4       	brne	.+2      	; 0x2796 <.Loc.209>

00002794 <L0^A>:
    2794:	aa c0       	rjmp	.+340    	; 0x28ea <.L45>

00002796 <.Loc.209>:
    2796:	13 be       	out	0x33, r1	; 51

00002798 <.LVL77>:
    2798:	0e 94 8b 1a 	call	0x3516	; 0x3516 <__floatunsisf>

0000279c <.LVL78>:
    279c:	2f e6       	ldi	r18, 0x6F	; 111
    279e:	32 e1       	ldi	r19, 0x12	; 18
    27a0:	43 e0       	ldi	r20, 0x03	; 3
    27a2:	52 e4       	ldi	r21, 0x42	; 66
    27a4:	69 83       	std	Y+1, r22	; 0x01
    27a6:	7a 83       	std	Y+2, r23	; 0x02
    27a8:	8b 83       	std	Y+3, r24	; 0x03
    27aa:	9c 83       	std	Y+4, r25	; 0x04
    27ac:	69 81       	ldd	r22, Y+1	; 0x01
    27ae:	7a 81       	ldd	r23, Y+2	; 0x02
    27b0:	8b 81       	ldd	r24, Y+3	; 0x03
    27b2:	9c 81       	ldd	r25, Y+4	; 0x04
    27b4:	0e 94 e3 19 	call	0x33c6	; 0x33c6 <__divsf3>

000027b8 <.LVL79>:
    27b8:	e6 2e       	mov	r14, r22
    27ba:	f7 2e       	mov	r15, r23
    27bc:	08 2f       	mov	r16, r24
    27be:	19 2f       	mov	r17, r25

000027c0 <.LVL80>:
    27c0:	69 83       	std	Y+1, r22	; 0x01
    27c2:	7a 83       	std	Y+2, r23	; 0x02
    27c4:	8b 83       	std	Y+3, r24	; 0x03
    27c6:	9c 83       	std	Y+4, r25	; 0x04
    27c8:	69 81       	ldd	r22, Y+1	; 0x01
    27ca:	7a 81       	ldd	r23, Y+2	; 0x02
    27cc:	8b 81       	ldd	r24, Y+3	; 0x03
    27ce:	9c 81       	ldd	r25, Y+4	; 0x04
    27d0:	0e 94 5c 1a 	call	0x34b8	; 0x34b8 <__fixunssfsi>

000027d4 <.LVL81>:
    27d4:	69 83       	std	Y+1, r22	; 0x01
    27d6:	7a 83       	std	Y+2, r23	; 0x02
    27d8:	8b 83       	std	Y+3, r24	; 0x03
    27da:	9c 83       	std	Y+4, r25	; 0x04

000027dc <.Loc.217>:
    27dc:	89 81       	ldd	r24, Y+1	; 0x01
    27de:	9a 81       	ldd	r25, Y+2	; 0x02
    27e0:	ab 81       	ldd	r26, Y+3	; 0x03
    27e2:	bc 81       	ldd	r27, Y+4	; 0x04
    27e4:	80 93 35 01 	sts	0x0135, r24	; 0x800135 <overflowCount>
    27e8:	90 93 36 01 	sts	0x0136, r25	; 0x800136 <overflowCount+0x1>
    27ec:	a0 93 37 01 	sts	0x0137, r26	; 0x800137 <overflowCount+0x2>
    27f0:	b0 93 38 01 	sts	0x0138, r27	; 0x800138 <overflowCount+0x3>

000027f4 <.Loc.218>:
    27f4:	bc 01       	movw	r22, r24
    27f6:	cd 01       	movw	r24, r26
    27f8:	0e 94 8b 1a 	call	0x3516	; 0x3516 <__floatunsisf>

000027fc <.LVL82>:
    27fc:	26 2f       	mov	r18, r22
    27fe:	37 2f       	mov	r19, r23
    2800:	48 2f       	mov	r20, r24
    2802:	59 2f       	mov	r21, r25
    2804:	ed 82       	std	Y+5, r14	; 0x05
    2806:	fe 82       	std	Y+6, r15	; 0x06
    2808:	0f 83       	std	Y+7, r16	; 0x07
    280a:	18 87       	std	Y+8, r17	; 0x08
    280c:	6d 81       	ldd	r22, Y+5	; 0x05
    280e:	7e 81       	ldd	r23, Y+6	; 0x06
    2810:	8f 81       	ldd	r24, Y+7	; 0x07
    2812:	98 85       	ldd	r25, Y+8	; 0x08
    2814:	0e 94 76 19 	call	0x32ec	; 0x32ec <__subsf3>

00002818 <.LVL83>:
    2818:	26 2f       	mov	r18, r22
    281a:	37 2f       	mov	r19, r23
    281c:	48 2f       	mov	r20, r24
    281e:	59 2f       	mov	r21, r25
    2820:	60 e0       	ldi	r22, 0x00	; 0
    2822:	70 e0       	ldi	r23, 0x00	; 0
    2824:	80 e8       	ldi	r24, 0x80	; 128
    2826:	9f e3       	ldi	r25, 0x3F	; 63
    2828:	0e 94 76 19 	call	0x32ec	; 0x32ec <__subsf3>

0000282c <.LVL84>:
    282c:	20 e0       	ldi	r18, 0x00	; 0
    282e:	30 e0       	ldi	r19, 0x00	; 0
    2830:	4f e7       	ldi	r20, 0x7F	; 127
    2832:	53 e4       	ldi	r21, 0x43	; 67
    2834:	6d 83       	std	Y+5, r22	; 0x05
    2836:	7e 83       	std	Y+6, r23	; 0x06
    2838:	8f 83       	std	Y+7, r24	; 0x07
    283a:	98 87       	std	Y+8, r25	; 0x08
    283c:	6d 81       	ldd	r22, Y+5	; 0x05
    283e:	7e 81       	ldd	r23, Y+6	; 0x06
    2840:	8f 81       	ldd	r24, Y+7	; 0x07
    2842:	98 85       	ldd	r25, Y+8	; 0x08
    2844:	0e 94 19 1b 	call	0x3632	; 0x3632 <__mulsf3>

00002848 <.LVL85>:
    2848:	6d 83       	std	Y+5, r22	; 0x05
    284a:	7e 83       	std	Y+6, r23	; 0x06
    284c:	8f 83       	std	Y+7, r24	; 0x07
    284e:	98 87       	std	Y+8, r25	; 0x08
    2850:	6d 81       	ldd	r22, Y+5	; 0x05
    2852:	7e 81       	ldd	r23, Y+6	; 0x06
    2854:	8f 81       	ldd	r24, Y+7	; 0x07
    2856:	98 85       	ldd	r25, Y+8	; 0x08
    2858:	0e 94 5c 1a 	call	0x34b8	; 0x34b8 <__fixunssfsi>

0000285c <.LVL86>:
    285c:	60 93 34 01 	sts	0x0134, r22	; 0x800134 <startValue>

00002860 <.Loc.223>:
    2860:	66 23       	and	r22, r22
    2862:	79 f0       	breq	.+30     	; 0x2882 <.L44>

00002864 <.Loc.225>:
    2864:	89 81       	ldd	r24, Y+1	; 0x01
    2866:	9a 81       	ldd	r25, Y+2	; 0x02
    2868:	ab 81       	ldd	r26, Y+3	; 0x03
    286a:	bc 81       	ldd	r27, Y+4	; 0x04
    286c:	01 96       	adiw	r24, 0x01	; 1
    286e:	a1 1d       	adc	r26, r1
    2870:	b1 1d       	adc	r27, r1
    2872:	80 93 35 01 	sts	0x0135, r24	; 0x800135 <overflowCount>
    2876:	90 93 36 01 	sts	0x0136, r25	; 0x800136 <overflowCount+0x1>
    287a:	a0 93 37 01 	sts	0x0137, r26	; 0x800137 <overflowCount+0x2>
    287e:	b0 93 38 01 	sts	0x0138, r27	; 0x800138 <overflowCount+0x3>

00002882 <.L44>:
    2882:	80 91 35 01 	lds	r24, 0x0135	; 0x800135 <overflowCount>
    2886:	90 91 36 01 	lds	r25, 0x0136	; 0x800136 <overflowCount+0x1>
    288a:	a0 91 37 01 	lds	r26, 0x0137	; 0x800137 <overflowCount+0x2>
    288e:	b0 91 38 01 	lds	r27, 0x0138	; 0x800138 <overflowCount+0x3>
    2892:	80 93 3b 01 	sts	0x013B, r24	; 0x80013b <Copy_u32DelayCountAsync>
    2896:	90 93 3c 01 	sts	0x013C, r25	; 0x80013c <Copy_u32DelayCountAsync+0x1>
    289a:	a0 93 3d 01 	sts	0x013D, r26	; 0x80013d <Copy_u32DelayCountAsync+0x2>
    289e:	b0 93 3e 01 	sts	0x013E, r27	; 0x80013e <Copy_u32DelayCountAsync+0x3>

000028a2 <.Loc.229>:
    28a2:	a9 85       	ldd	r26, Y+9	; 0x09
    28a4:	ba 85       	ldd	r27, Y+10	; 0x0a
    28a6:	b0 93 3a 01 	sts	0x013A, r27	; 0x80013a <TMR0_DelayCountAsyncFunc+0x1>
    28aa:	a0 93 39 01 	sts	0x0139, r26	; 0x800139 <TMR0_DelayCountAsyncFunc>

000028ae <.Loc.231>:
    28ae:	88 e2       	ldi	r24, 0x28	; 40
    28b0:	91 e1       	ldi	r25, 0x11	; 17
    28b2:	90 93 46 01 	sts	0x0146, r25	; 0x800146 <TMR0_OverflowCallback+0x1>
    28b6:	80 93 45 01 	sts	0x0145, r24	; 0x800145 <TMR0_OverflowCallback>

000028ba <.Loc.233>:
    28ba:	89 b7       	in	r24, 0x39	; 57
    28bc:	81 60       	ori	r24, 0x01	; 1
    28be:	89 bf       	out	0x39, r24	; 57

000028c0 <.Loc.234>:
    28c0:	00 e0       	ldi	r16, 0x00	; 0

000028c2 <.LVL87>:
    28c2:	20 91 34 01 	lds	r18, 0x0134	; 0x800134 <startValue>
    28c6:	40 e0       	ldi	r20, 0x00	; 0
    28c8:	60 e0       	ldi	r22, 0x00	; 0
    28ca:	85 e0       	ldi	r24, 0x05	; 5
    28cc:	0e 94 aa 11 	call	0x2354	; 0x2354 <TMR0_enuInit>

000028d0 <.L42>:
    28d0:	2a 96       	adiw	r28, 0x0a	; 10
    28d2:	0f b6       	in	r0, 0x3f	; 63
    28d4:	f8 94       	cli
    28d6:	de bf       	out	0x3e, r29	; 62
    28d8:	0f be       	out	0x3f, r0	; 63
    28da:	cd bf       	out	0x3d, r28	; 61
    28dc:	df 91       	pop	r29
    28de:	cf 91       	pop	r28
    28e0:	1f 91       	pop	r17
    28e2:	0f 91       	pop	r16
    28e4:	ff 90       	pop	r15
    28e6:	ef 90       	pop	r14
    28e8:	08 95       	ret

000028ea <.L45>:
    28ea:	82 e0       	ldi	r24, 0x02	; 2
    28ec:	90 e0       	ldi	r25, 0x00	; 0
    28ee:	f0 cf       	rjmp	.-32     	; 0x28d0 <.L42>

000028f0 <TMR1_enuInit>:
    28f0:	08 95       	ret

000028f2 <TMR1_SetPreload>:
    28f2:	08 95       	ret

000028f4 <TMR1_SetOutputCompareValue>:
    28f4:	08 95       	ret

000028f6 <TMR1_EnableOverflowInterrupt>:
    28f6:	08 95       	ret

000028f8 <TMR1_enuSetOverflowCallback>:
    28f8:	08 95       	ret

000028fa <TMR1_DisableOverflowInterrupt>:
    28fa:	08 95       	ret

000028fc <TMR1_EnableCompareMatchAInterrupt>:
    28fc:	08 95       	ret

000028fe <TMR1_enuSetCompareMatchACallback>:
    28fe:	08 95       	ret

00002900 <TMR1_DisableCompareMatchAInterrupt>:
    2900:	08 95       	ret

00002902 <TMR1_EnableCompareMatchBInterrupt>:
    2902:	08 95       	ret

00002904 <TMR1_enuSetCompareMatchBCallback>:
    2904:	08 95       	ret

00002906 <TMR1_DisableCompareMatchBInterrupt>:
    2906:	08 95       	ret

00002908 <TMR1_EnableCaptureInterrupt>:
    2908:	08 95       	ret

0000290a <TMR1_enuSetCaptureCallback>:
    290a:	08 95       	ret

0000290c <TMR1_DisableCaptureInterrupt>:
    290c:	08 95       	ret

0000290e <TMR1_Stop>:
    290e:	08 95       	ret

00002910 <TMR1_enuBusyWaitms>:
    2910:	08 95       	ret

00002912 <TMR1_enuDelayedExecutionContiniuousms>:
    2912:	08 95       	ret

00002914 <TMR1_enuSetDutyandFrequency>:
    2914:	08 95       	ret

00002916 <__vector_13>:
    2916:	1f 92       	push	r1

00002918 <.LCFI0>:
    2918:	0f 92       	push	r0

0000291a <.LCFI1>:
    291a:	0f b6       	in	r0, 0x3f	; 63
    291c:	0f 92       	push	r0
    291e:	11 24       	eor	r1, r1
    2920:	2f 93       	push	r18

00002922 <.LCFI2>:
    2922:	3f 93       	push	r19

00002924 <.LCFI3>:
    2924:	4f 93       	push	r20

00002926 <.LCFI4>:
    2926:	5f 93       	push	r21

00002928 <.LCFI5>:
    2928:	6f 93       	push	r22

0000292a <.LCFI6>:
    292a:	7f 93       	push	r23

0000292c <.LCFI7>:
    292c:	8f 93       	push	r24

0000292e <.LCFI8>:
    292e:	9f 93       	push	r25

00002930 <.LCFI9>:
    2930:	af 93       	push	r26

00002932 <.LCFI10>:
    2932:	bf 93       	push	r27

00002934 <.LCFI11>:
    2934:	ef 93       	push	r30

00002936 <.LCFI12>:
    2936:	ff 93       	push	r31

00002938 <.LCFI13>:
    2938:	e0 91 4b 01 	lds	r30, 0x014B	; 0x80014b <UART_pvTransmitCompleteCallBack>
    293c:	f0 91 4c 01 	lds	r31, 0x014C	; 0x80014c <UART_pvTransmitCompleteCallBack+0x1>

00002940 <.Loc.3>:
    2940:	30 97       	sbiw	r30, 0x00	; 0
    2942:	09 f0       	breq	.+2      	; 0x2946 <.L1>

00002944 <.Loc.4>:
    2944:	09 95       	icall

00002946 <.L1>:
    2946:	ff 91       	pop	r31
    2948:	ef 91       	pop	r30
    294a:	bf 91       	pop	r27
    294c:	af 91       	pop	r26
    294e:	9f 91       	pop	r25
    2950:	8f 91       	pop	r24
    2952:	7f 91       	pop	r23
    2954:	6f 91       	pop	r22
    2956:	5f 91       	pop	r21
    2958:	4f 91       	pop	r20
    295a:	3f 91       	pop	r19
    295c:	2f 91       	pop	r18
    295e:	0f 90       	pop	r0
    2960:	0f be       	out	0x3f, r0	; 63
    2962:	0f 90       	pop	r0
    2964:	1f 90       	pop	r1
    2966:	18 95       	reti

00002968 <__vector_15>:
    2968:	1f 92       	push	r1

0000296a <.LCFI14>:
    296a:	0f 92       	push	r0

0000296c <.LCFI15>:
    296c:	0f b6       	in	r0, 0x3f	; 63
    296e:	0f 92       	push	r0
    2970:	11 24       	eor	r1, r1
    2972:	2f 93       	push	r18

00002974 <.LCFI16>:
    2974:	3f 93       	push	r19

00002976 <.LCFI17>:
    2976:	4f 93       	push	r20

00002978 <.LCFI18>:
    2978:	5f 93       	push	r21

0000297a <.LCFI19>:
    297a:	6f 93       	push	r22

0000297c <.LCFI20>:
    297c:	7f 93       	push	r23

0000297e <.LCFI21>:
    297e:	8f 93       	push	r24

00002980 <.LCFI22>:
    2980:	9f 93       	push	r25

00002982 <.LCFI23>:
    2982:	af 93       	push	r26

00002984 <.LCFI24>:
    2984:	bf 93       	push	r27

00002986 <.LCFI25>:
    2986:	ef 93       	push	r30

00002988 <.LCFI26>:
    2988:	ff 93       	push	r31

0000298a <.LCFI27>:
    298a:	e0 91 49 01 	lds	r30, 0x0149	; 0x800149 <UART_pvTransmitRegisterEmptyCallBack>
    298e:	f0 91 4a 01 	lds	r31, 0x014A	; 0x80014a <UART_pvTransmitRegisterEmptyCallBack+0x1>

00002992 <.Loc.9>:
    2992:	30 97       	sbiw	r30, 0x00	; 0
    2994:	09 f0       	breq	.+2      	; 0x2998 <.L3>

00002996 <.Loc.10>:
    2996:	09 95       	icall

00002998 <.L3>:
    2998:	ff 91       	pop	r31
    299a:	ef 91       	pop	r30
    299c:	bf 91       	pop	r27
    299e:	af 91       	pop	r26
    29a0:	9f 91       	pop	r25
    29a2:	8f 91       	pop	r24
    29a4:	7f 91       	pop	r23
    29a6:	6f 91       	pop	r22
    29a8:	5f 91       	pop	r21
    29aa:	4f 91       	pop	r20
    29ac:	3f 91       	pop	r19
    29ae:	2f 91       	pop	r18
    29b0:	0f 90       	pop	r0
    29b2:	0f be       	out	0x3f, r0	; 63
    29b4:	0f 90       	pop	r0
    29b6:	1f 90       	pop	r1
    29b8:	18 95       	reti

000029ba <__vector_14>:
    29ba:	1f 92       	push	r1

000029bc <.LCFI28>:
    29bc:	0f 92       	push	r0

000029be <.LCFI29>:
    29be:	0f b6       	in	r0, 0x3f	; 63
    29c0:	0f 92       	push	r0
    29c2:	11 24       	eor	r1, r1
    29c4:	2f 93       	push	r18

000029c6 <.LCFI30>:
    29c6:	3f 93       	push	r19

000029c8 <.LCFI31>:
    29c8:	4f 93       	push	r20

000029ca <.LCFI32>:
    29ca:	5f 93       	push	r21

000029cc <.LCFI33>:
    29cc:	6f 93       	push	r22

000029ce <.LCFI34>:
    29ce:	7f 93       	push	r23

000029d0 <.LCFI35>:
    29d0:	8f 93       	push	r24

000029d2 <.LCFI36>:
    29d2:	9f 93       	push	r25

000029d4 <.LCFI37>:
    29d4:	af 93       	push	r26

000029d6 <.LCFI38>:
    29d6:	bf 93       	push	r27

000029d8 <.LCFI39>:
    29d8:	ef 93       	push	r30

000029da <.LCFI40>:
    29da:	ff 93       	push	r31

000029dc <.LCFI41>:
    29dc:	e0 91 47 01 	lds	r30, 0x0147	; 0x800147 <UART_pvReceiveCompleteCallBack>
    29e0:	f0 91 48 01 	lds	r31, 0x0148	; 0x800148 <UART_pvReceiveCompleteCallBack+0x1>

000029e4 <.Loc.15>:
    29e4:	30 97       	sbiw	r30, 0x00	; 0
    29e6:	09 f0       	breq	.+2      	; 0x29ea <.L5>

000029e8 <.Loc.16>:
    29e8:	09 95       	icall

000029ea <.L5>:
    29ea:	ff 91       	pop	r31
    29ec:	ef 91       	pop	r30
    29ee:	bf 91       	pop	r27
    29f0:	af 91       	pop	r26
    29f2:	9f 91       	pop	r25
    29f4:	8f 91       	pop	r24
    29f6:	7f 91       	pop	r23
    29f8:	6f 91       	pop	r22
    29fa:	5f 91       	pop	r21
    29fc:	4f 91       	pop	r20
    29fe:	3f 91       	pop	r19
    2a00:	2f 91       	pop	r18
    2a02:	0f 90       	pop	r0
    2a04:	0f be       	out	0x3f, r0	; 63
    2a06:	0f 90       	pop	r0
    2a08:	1f 90       	pop	r1
    2a0a:	18 95       	reti

00002a0c <UART_enuInit>:
    2a0c:	ef 92       	push	r14

00002a0e <.LCFI42>:
    2a0e:	ff 92       	push	r15

00002a10 <.LCFI43>:
    2a10:	0f 93       	push	r16

00002a12 <.LCFI44>:
    2a12:	1f 93       	push	r17

00002a14 <.LCFI45>:
    2a14:	cf 93       	push	r28

00002a16 <.LCFI46>:
    2a16:	df 93       	push	r29

00002a18 <.LCFI47>:
    2a18:	00 d0       	rcall	.+0      	; 0x2a1a <L0^A>

00002a1a <L0^A>:
    2a1a:	00 d0       	rcall	.+0      	; 0x2a1c <L0^A>

00002a1c <L0^A>:
    2a1c:	0f 92       	push	r0

00002a1e <.LCFI48>:
    2a1e:	cd b7       	in	r28, 0x3d	; 61
    2a20:	de b7       	in	r29, 0x3e	; 62

00002a22 <.LCFI49>:
    2a22:	4d 83       	std	Y+5, r20	; 0x05
    2a24:	12 2f       	mov	r17, r18

00002a26 <.Loc.20>:
    2a26:	23 30       	cpi	r18, 0x03	; 3
    2a28:	08 f0       	brcs	.+2      	; 0x2a2c <.Loc.22>

00002a2a <L0^A>:
    2a2a:	6e c0       	rjmp	.+220    	; 0x2b08 <.L11>

00002a2c <.Loc.22>:
    2a2c:	02 30       	cpi	r16, 0x02	; 2
    2a2e:	08 f0       	brcs	.+2      	; 0x2a32 <.Loc.23>

00002a30 <L0^A>:
    2a30:	6e c0       	rjmp	.+220    	; 0x2b0e <.L12>

00002a32 <.Loc.23>:
    2a32:	45 30       	cpi	r20, 0x05	; 5
    2a34:	08 f0       	brcs	.+2      	; 0x2a38 <.Loc.24>

00002a36 <L0^A>:
    2a36:	6e c0       	rjmp	.+220    	; 0x2b14 <.L13>

00002a38 <.Loc.24>:
    2a38:	21 e0       	ldi	r18, 0x01	; 1

00002a3a <.LVL4>:
    2a3a:	2e 15       	cp	r18, r14
    2a3c:	08 f4       	brcc	.+2      	; 0x2a40 <.Loc.26>

00002a3e <L0^A>:
    2a3e:	6d c0       	rjmp	.+218    	; 0x2b1a <.L14>

00002a40 <.Loc.26>:
    2a40:	f1 2c       	mov	r15, r1
    2a42:	d7 01       	movw	r26, r14
    2a44:	11 96       	adiw	r26, 0x01	; 1

00002a46 <.Loc.28>:
    2a46:	26 2f       	mov	r18, r22
    2a48:	37 2f       	mov	r19, r23
    2a4a:	48 2f       	mov	r20, r24

00002a4c <.LVL5>:
    2a4c:	59 2f       	mov	r21, r25
    2a4e:	0e 94 5f 19 	call	0x32be	; 0x32be <__mulshisi3>

00002a52 <.LVL6>:
    2a52:	69 83       	std	Y+1, r22	; 0x01
    2a54:	7a 83       	std	Y+2, r23	; 0x02
    2a56:	8b 83       	std	Y+3, r24	; 0x03
    2a58:	9c 83       	std	Y+4, r25	; 0x04

00002a5a <.LVL7>:
    2a5a:	9b 01       	movw	r18, r22
    2a5c:	ac 01       	movw	r20, r24
    2a5e:	22 0f       	add	r18, r18
    2a60:	33 1f       	adc	r19, r19
    2a62:	44 1f       	adc	r20, r20
    2a64:	55 1f       	adc	r21, r21
    2a66:	22 0f       	add	r18, r18
    2a68:	33 1f       	adc	r19, r19
    2a6a:	44 1f       	adc	r20, r20
    2a6c:	55 1f       	adc	r21, r21
    2a6e:	22 0f       	add	r18, r18
    2a70:	33 1f       	adc	r19, r19
    2a72:	44 1f       	adc	r20, r20
    2a74:	55 1f       	adc	r21, r21
    2a76:	22 0f       	add	r18, r18
    2a78:	33 1f       	adc	r19, r19
    2a7a:	44 1f       	adc	r20, r20
    2a7c:	55 1f       	adc	r21, r21

00002a7e <.Loc.33>:
    2a7e:	60 e0       	ldi	r22, 0x00	; 0
    2a80:	72 e1       	ldi	r23, 0x12	; 18
    2a82:	8a e7       	ldi	r24, 0x7A	; 122
    2a84:	90 e0       	ldi	r25, 0x00	; 0

00002a86 <.LVL8>:
    2a86:	0e 94 32 19 	call	0x3264	; 0x3264 <__udivmodsi4>

00002a8a <.Loc.35>:
    2a8a:	21 50       	subi	r18, 0x01	; 1
    2a8c:	31 09       	sbc	r19, r1

00002a8e <.LVL9>:
    2a8e:	21 15       	cp	r18, r1
    2a90:	80 e1       	ldi	r24, 0x10	; 16
    2a92:	38 07       	cpc	r19, r24
    2a94:	08 f0       	brcs	.+2      	; 0x2a98 <.Loc.38>

00002a96 <L0^A>:
    2a96:	44 c0       	rjmp	.+136    	; 0x2b20 <.L15>

00002a98 <.Loc.38>:
    2a98:	30 bd       	out	0x20, r19	; 32

00002a9a <.LVL10>:
    2a9a:	29 b9       	out	0x09, r18	; 9

00002a9c <.Loc.42>:
    2a9c:	8b b1       	in	r24, 0x0b	; 11

00002a9e <.Loc.43>:
    2a9e:	ee 0c       	add	r14, r14
    2aa0:	ff 1c       	adc	r15, r15

00002aa2 <.LVL11>:
    2aa2:	8e 29       	or	r24, r14
    2aa4:	8b b9       	out	0x0b, r24	; 11

00002aa6 <.Loc.45>:
    2aa6:	2d 81       	ldd	r18, Y+5	; 0x05

00002aa8 <.LVL12>:
    2aa8:	24 30       	cpi	r18, 0x04	; 4
    2aaa:	41 f1       	breq	.+80     	; 0x2afc <.L16>

00002aac <.L9>:
    2aac:	11 23       	and	r17, r17
    2aae:	19 f0       	breq	.+6      	; 0x2ab6 <.L10>

00002ab0 <.Loc.50>:
    2ab0:	2d 81       	ldd	r18, Y+5	; 0x05
    2ab2:	2f 5f       	subi	r18, 0xFF	; 255
    2ab4:	2d 83       	std	Y+5, r18	; 0x05

00002ab6 <.L10>:
    2ab6:	80 e1       	ldi	r24, 0x10	; 16
    2ab8:	18 9f       	mul	r17, r24
    2aba:	90 01       	movw	r18, r0
    2abc:	11 24       	eor	r1, r1

00002abe <.Loc.54>:
    2abe:	20 68       	ori	r18, 0x80	; 128

00002ac0 <.Loc.55>:
    2ac0:	10 e0       	ldi	r17, 0x00	; 0

00002ac2 <.LVL15>:
    2ac2:	00 0f       	add	r16, r16
    2ac4:	11 1f       	adc	r17, r17
    2ac6:	00 0f       	add	r16, r16
    2ac8:	11 1f       	adc	r17, r17
    2aca:	00 0f       	add	r16, r16
    2acc:	11 1f       	adc	r17, r17

00002ace <.LVL16>:
    2ace:	02 2b       	or	r16, r18

00002ad0 <.Loc.58>:
    2ad0:	2d 81       	ldd	r18, Y+5	; 0x05
    2ad2:	42 2f       	mov	r20, r18
    2ad4:	50 e0       	ldi	r21, 0x00	; 0
    2ad6:	44 0f       	add	r20, r20
    2ad8:	55 1f       	adc	r21, r21
    2ada:	46 70       	andi	r20, 0x06	; 6

00002adc <.Loc.59>:
    2adc:	04 2b       	or	r16, r20

00002ade <.Loc.60>:
    2ade:	00 bd       	out	0x20, r16	; 32

00002ae0 <.LVL17>:
    2ae0:	80 e0       	ldi	r24, 0x00	; 0
    2ae2:	90 e0       	ldi	r25, 0x00	; 0

00002ae4 <.L7>:
    2ae4:	0f 90       	pop	r0
    2ae6:	0f 90       	pop	r0
    2ae8:	0f 90       	pop	r0
    2aea:	0f 90       	pop	r0
    2aec:	0f 90       	pop	r0
    2aee:	df 91       	pop	r29
    2af0:	cf 91       	pop	r28
    2af2:	1f 91       	pop	r17
    2af4:	0f 91       	pop	r16
    2af6:	ff 90       	pop	r15
    2af8:	ef 90       	pop	r14
    2afa:	08 95       	ret

00002afc <.L16>:
    2afc:	8a b1       	in	r24, 0x0a	; 10
    2afe:	84 60       	ori	r24, 0x04	; 4
    2b00:	8a b9       	out	0x0a, r24	; 10

00002b02 <.LVL20>:
    2b02:	83 e0       	ldi	r24, 0x03	; 3
    2b04:	8d 83       	std	Y+5, r24	; 0x05
    2b06:	d2 cf       	rjmp	.-92     	; 0x2aac <.L9>

00002b08 <.L11>:
    2b08:	84 e0       	ldi	r24, 0x04	; 4
    2b0a:	90 e0       	ldi	r25, 0x00	; 0
    2b0c:	eb cf       	rjmp	.-42     	; 0x2ae4 <.L7>

00002b0e <.L12>:
    2b0e:	84 e0       	ldi	r24, 0x04	; 4
    2b10:	90 e0       	ldi	r25, 0x00	; 0
    2b12:	e8 cf       	rjmp	.-48     	; 0x2ae4 <.L7>

00002b14 <.L13>:
    2b14:	84 e0       	ldi	r24, 0x04	; 4
    2b16:	90 e0       	ldi	r25, 0x00	; 0
    2b18:	e5 cf       	rjmp	.-54     	; 0x2ae4 <.L7>

00002b1a <.L14>:
    2b1a:	84 e0       	ldi	r24, 0x04	; 4
    2b1c:	90 e0       	ldi	r25, 0x00	; 0
    2b1e:	e2 cf       	rjmp	.-60     	; 0x2ae4 <.L7>

00002b20 <.L15>:
    2b20:	84 e0       	ldi	r24, 0x04	; 4
    2b22:	90 e0       	ldi	r25, 0x00	; 0
    2b24:	df cf       	rjmp	.-66     	; 0x2ae4 <.L7>

00002b26 <UART_voidEnableTransmitUnit>:
    2b26:	8a b1       	in	r24, 0x0a	; 10
    2b28:	88 60       	ori	r24, 0x08	; 8
    2b2a:	8a b9       	out	0x0a, r24	; 10

00002b2c <.Loc.72>:
    2b2c:	08 95       	ret

00002b2e <UART_voidTransmit>:
    2b2e:	5d 9b       	sbis	0x0b, 5	; 11
    2b30:	fe cf       	rjmp	.-4      	; 0x2b2e <UART_voidTransmit>

00002b32 <.Loc.75>:
    2b32:	8c b9       	out	0x0c, r24	; 12

00002b34 <.Loc.77>:
    2b34:	08 95       	ret

00002b36 <UART_voidTransmit9bit>:
    2b36:	5d 9b       	sbis	0x0b, 5	; 11
    2b38:	fe cf       	rjmp	.-4      	; 0x2b36 <UART_voidTransmit9bit>

00002b3a <.Loc.80>:
    2b3a:	2a b1       	in	r18, 0x0a	; 10

00002b3c <.Loc.82>:
    2b3c:	2e 7f       	andi	r18, 0xFE	; 254

00002b3e <.Loc.83>:
    2b3e:	91 70       	andi	r25, 0x01	; 1

00002b40 <.Loc.84>:
    2b40:	92 2b       	or	r25, r18

00002b42 <.Loc.85>:
    2b42:	9a b9       	out	0x0a, r25	; 10

00002b44 <.Loc.86>:
    2b44:	8c b9       	out	0x0c, r24	; 12

00002b46 <.Loc.88>:
    2b46:	08 95       	ret

00002b48 <UART_voidEnableTransmitCompleteInterrupt>:
    2b48:	8a b1       	in	r24, 0x0a	; 10
    2b4a:	80 64       	ori	r24, 0x40	; 64
    2b4c:	8a b9       	out	0x0a, r24	; 10

00002b4e <.Loc.91>:
    2b4e:	08 95       	ret

00002b50 <UART_enuSetTransmitCompleteCallBack>:
    2b50:	28 2f       	mov	r18, r24
    2b52:	39 2f       	mov	r19, r25

00002b54 <.Loc.94>:
    2b54:	21 15       	cp	r18, r1
    2b56:	31 05       	cpc	r19, r1
    2b58:	39 f0       	breq	.+14     	; 0x2b68 <.L25>

00002b5a <.Loc.96>:
    2b5a:	30 93 4c 01 	sts	0x014C, r19	; 0x80014c <UART_pvTransmitCompleteCallBack+0x1>
    2b5e:	20 93 4b 01 	sts	0x014B, r18	; 0x80014b <UART_pvTransmitCompleteCallBack>

00002b62 <.Loc.98>:
    2b62:	80 e0       	ldi	r24, 0x00	; 0
    2b64:	90 e0       	ldi	r25, 0x00	; 0

00002b66 <.LVL26>:
    2b66:	08 95       	ret

00002b68 <.L25>:
    2b68:	82 e0       	ldi	r24, 0x02	; 2
    2b6a:	90 e0       	ldi	r25, 0x00	; 0

00002b6c <.LVL28>:
    2b6c:	08 95       	ret

00002b6e <UART_voidDisableTransmitCompleteInterrupt>:
    2b6e:	8a b1       	in	r24, 0x0a	; 10
    2b70:	8f 7b       	andi	r24, 0xBF	; 191
    2b72:	8a b9       	out	0x0a, r24	; 10

00002b74 <.Loc.105>:
    2b74:	08 95       	ret

00002b76 <UART_voidEnableTransmitRegisterEmptyInterrupt>:
    2b76:	8a b1       	in	r24, 0x0a	; 10
    2b78:	80 62       	ori	r24, 0x20	; 32
    2b7a:	8a b9       	out	0x0a, r24	; 10

00002b7c <.Loc.108>:
    2b7c:	08 95       	ret

00002b7e <UART_enuSetTransmitRegisterEmptyCallBack>:
    2b7e:	28 2f       	mov	r18, r24
    2b80:	39 2f       	mov	r19, r25

00002b82 <.Loc.111>:
    2b82:	21 15       	cp	r18, r1
    2b84:	31 05       	cpc	r19, r1
    2b86:	39 f0       	breq	.+14     	; 0x2b96 <.L30>

00002b88 <.Loc.113>:
    2b88:	30 93 4a 01 	sts	0x014A, r19	; 0x80014a <UART_pvTransmitRegisterEmptyCallBack+0x1>
    2b8c:	20 93 49 01 	sts	0x0149, r18	; 0x800149 <UART_pvTransmitRegisterEmptyCallBack>

00002b90 <.Loc.115>:
    2b90:	80 e0       	ldi	r24, 0x00	; 0
    2b92:	90 e0       	ldi	r25, 0x00	; 0

00002b94 <.LVL30>:
    2b94:	08 95       	ret

00002b96 <.L30>:
    2b96:	82 e0       	ldi	r24, 0x02	; 2
    2b98:	90 e0       	ldi	r25, 0x00	; 0

00002b9a <.LVL32>:
    2b9a:	08 95       	ret

00002b9c <UART_voidDisableTransmitRegisterEmptyInterrupt>:
    2b9c:	8a b1       	in	r24, 0x0a	; 10
    2b9e:	8f 7d       	andi	r24, 0xDF	; 223
    2ba0:	8a b9       	out	0x0a, r24	; 10

00002ba2 <.Loc.122>:
    2ba2:	08 95       	ret

00002ba4 <UART_voidDisableTransmitUnit>:
    2ba4:	8a b1       	in	r24, 0x0a	; 10
    2ba6:	87 7f       	andi	r24, 0xF7	; 247
    2ba8:	8a b9       	out	0x0a, r24	; 10

00002baa <.Loc.125>:
    2baa:	08 95       	ret

00002bac <UART_voidEnableReceiveUnit>:
    2bac:	8a b1       	in	r24, 0x0a	; 10
    2bae:	80 61       	ori	r24, 0x10	; 16
    2bb0:	8a b9       	out	0x0a, r24	; 10

00002bb2 <.Loc.128>:
    2bb2:	08 95       	ret

00002bb4 <UART_enuReceive>:
    2bb4:	5f 9b       	sbis	0x0b, 7	; 11
    2bb6:	fe cf       	rjmp	.-4      	; 0x2bb4 <UART_enuReceive>

00002bb8 <.Loc.131>:
    2bb8:	8c b1       	in	r24, 0x0c	; 12

00002bba <.Loc.133>:
    2bba:	08 95       	ret

00002bbc <UART_enuReceive9bit>:
    2bbc:	5f 9b       	sbis	0x0b, 7	; 11
    2bbe:	fe cf       	rjmp	.-4      	; 0x2bbc <UART_enuReceive9bit>

00002bc0 <.Loc.136>:
    2bc0:	2c b1       	in	r18, 0x0c	; 12

00002bc2 <.Loc.138>:
    2bc2:	8a b1       	in	r24, 0x0a	; 10

00002bc4 <.Loc.139>:
    2bc4:	30 e8       	ldi	r19, 0x80	; 128
    2bc6:	83 9f       	mul	r24, r19
    2bc8:	c0 01       	movw	r24, r0
    2bca:	11 24       	eor	r1, r1
    2bcc:	88 27       	eor	r24, r24
    2bce:	91 70       	andi	r25, 0x01	; 1

00002bd0 <.Loc.140>:
    2bd0:	82 2b       	or	r24, r18
    2bd2:	08 95       	ret

00002bd4 <UART_voidEnableReceiveCompleteInterrupt>:
    2bd4:	8a b1       	in	r24, 0x0a	; 10
    2bd6:	80 68       	ori	r24, 0x80	; 128
    2bd8:	8a b9       	out	0x0a, r24	; 10

00002bda <.Loc.143>:
    2bda:	08 95       	ret

00002bdc <UART_enuSetReceiveCompleteCallBack>:
    2bdc:	28 2f       	mov	r18, r24
    2bde:	39 2f       	mov	r19, r25

00002be0 <.Loc.146>:
    2be0:	21 15       	cp	r18, r1
    2be2:	31 05       	cpc	r19, r1
    2be4:	39 f0       	breq	.+14     	; 0x2bf4 <.L41>

00002be6 <.Loc.148>:
    2be6:	30 93 48 01 	sts	0x0148, r19	; 0x800148 <UART_pvReceiveCompleteCallBack+0x1>
    2bea:	20 93 47 01 	sts	0x0147, r18	; 0x800147 <UART_pvReceiveCompleteCallBack>

00002bee <.Loc.150>:
    2bee:	80 e0       	ldi	r24, 0x00	; 0
    2bf0:	90 e0       	ldi	r25, 0x00	; 0

00002bf2 <.LVL34>:
    2bf2:	08 95       	ret

00002bf4 <.L41>:
    2bf4:	82 e0       	ldi	r24, 0x02	; 2
    2bf6:	90 e0       	ldi	r25, 0x00	; 0

00002bf8 <.LVL36>:
    2bf8:	08 95       	ret

00002bfa <UART_voidDisableReceiveCompleteInterrupt>:
    2bfa:	8a b1       	in	r24, 0x0a	; 10
    2bfc:	8f 77       	andi	r24, 0x7F	; 127
    2bfe:	8a b9       	out	0x0a, r24	; 10

00002c00 <.Loc.157>:
    2c00:	08 95       	ret

00002c02 <UART_voidDisableReceiveUnit>:
    2c02:	8a b1       	in	r24, 0x0a	; 10
    2c04:	8f 7e       	andi	r24, 0xEF	; 239
    2c06:	8a b9       	out	0x0a, r24	; 10

00002c08 <.Loc.160>:
    2c08:	08 95       	ret

00002c0a <UART_enuTransmitString>:
    2c0a:	cf 93       	push	r28

00002c0c <.LCFI50>:
    2c0c:	df 93       	push	r29

00002c0e <.LCFI51>:
    2c0e:	c8 2f       	mov	r28, r24
    2c10:	d9 2f       	mov	r29, r25

00002c12 <.Loc.163>:
    2c12:	20 97       	sbiw	r28, 0x00	; 0
    2c14:	71 f0       	breq	.+28     	; 0x2c32 <.L48>

00002c16 <.Loc.165>:
    2c16:	0e 94 93 15 	call	0x2b26	; 0x2b26 <UART_voidEnableTransmitUnit>

00002c1a <.LVL38>:
    2c1a:	03 c0       	rjmp	.+6      	; 0x2c22 <.L46>

00002c1c <.L47>:
    2c1c:	0e 94 97 15 	call	0x2b2e	; 0x2b2e <UART_voidTransmit>

00002c20 <.LVL40>:
    2c20:	21 96       	adiw	r28, 0x01	; 1

00002c22 <.L46>:
    2c22:	88 81       	ld	r24, Y

00002c24 <.Loc.173>:
    2c24:	81 11       	cpse	r24, r1
    2c26:	fa cf       	rjmp	.-12     	; 0x2c1c <.L47>

00002c28 <.Loc.174>:
    2c28:	80 e0       	ldi	r24, 0x00	; 0
    2c2a:	90 e0       	ldi	r25, 0x00	; 0

00002c2c <.L44>:
    2c2c:	df 91       	pop	r29
    2c2e:	cf 91       	pop	r28
    2c30:	08 95       	ret

00002c32 <.L48>:
    2c32:	82 e0       	ldi	r24, 0x02	; 2
    2c34:	90 e0       	ldi	r25, 0x00	; 0

00002c36 <.LVL44>:
    2c36:	fa cf       	rjmp	.-12     	; 0x2c2c <.L44>

00002c38 <floatToString>:
    2c38:	6f 92       	push	r6

00002c3a <.LCFI0>:
    2c3a:	7f 92       	push	r7

00002c3c <.LCFI1>:
    2c3c:	8f 92       	push	r8

00002c3e <.LCFI2>:
    2c3e:	9f 92       	push	r9

00002c40 <.LCFI3>:
    2c40:	af 92       	push	r10

00002c42 <.LCFI4>:
    2c42:	bf 92       	push	r11

00002c44 <.LCFI5>:
    2c44:	cf 92       	push	r12

00002c46 <.LCFI6>:
    2c46:	df 92       	push	r13

00002c48 <.LCFI7>:
    2c48:	ef 92       	push	r14

00002c4a <.LCFI8>:
    2c4a:	ff 92       	push	r15

00002c4c <.LCFI9>:
    2c4c:	0f 93       	push	r16

00002c4e <.LCFI10>:
    2c4e:	1f 93       	push	r17

00002c50 <.LCFI11>:
    2c50:	cf 93       	push	r28

00002c52 <.LCFI12>:
    2c52:	df 93       	push	r29

00002c54 <.LCFI13>:
    2c54:	00 d0       	rcall	.+0      	; 0x2c56 <L0^A>

00002c56 <L0^A>:
    2c56:	00 d0       	rcall	.+0      	; 0x2c58 <L0^A>

00002c58 <L0^A>:
    2c58:	00 d0       	rcall	.+0      	; 0x2c5a <L0^A>

00002c5a <L0^A>:
    2c5a:	0f 92       	push	r0

00002c5c <.LCFI14>:
    2c5c:	cd b7       	in	r28, 0x3d	; 61
    2c5e:	de b7       	in	r29, 0x3e	; 62

00002c60 <.LCFI15>:
    2c60:	a6 2e       	mov	r10, r22
    2c62:	b7 2e       	mov	r11, r23
    2c64:	8f 83       	std	Y+7, r24	; 0x07
    2c66:	9d 83       	std	Y+5, r25	; 0x05
    2c68:	e4 2e       	mov	r14, r20
    2c6a:	f5 2e       	mov	r15, r21
    2c6c:	c2 2e       	mov	r12, r18
    2c6e:	d3 2e       	mov	r13, r19

00002c70 <.Loc.2>:
    2c70:	69 83       	std	Y+1, r22	; 0x01
    2c72:	7a 83       	std	Y+2, r23	; 0x02
    2c74:	8b 83       	std	Y+3, r24	; 0x03
    2c76:	9c 83       	std	Y+4, r25	; 0x04
    2c78:	69 81       	ldd	r22, Y+1	; 0x01
    2c7a:	7a 81       	ldd	r23, Y+2	; 0x02
    2c7c:	8b 81       	ldd	r24, Y+3	; 0x03
    2c7e:	9c 81       	ldd	r25, Y+4	; 0x04

00002c80 <.LVL1>:
    2c80:	0e 94 55 1a 	call	0x34aa	; 0x34aa <__fixsfsi>

00002c84 <.LVL2>:
    2c84:	46 2f       	mov	r20, r22
    2c86:	57 2f       	mov	r21, r23
    2c88:	8a 01       	movw	r16, r20

00002c8a <.LVL3>:
    2c8a:	ca 01       	movw	r24, r20
    2c8c:	55 0f       	add	r21, r21
    2c8e:	aa 0b       	sbc	r26, r26
    2c90:	bb 0b       	sbc	r27, r27
    2c92:	89 83       	std	Y+1, r24	; 0x01
    2c94:	9a 83       	std	Y+2, r25	; 0x02
    2c96:	ab 83       	std	Y+3, r26	; 0x03
    2c98:	bc 83       	std	Y+4, r27	; 0x04
    2c9a:	bc 01       	movw	r22, r24
    2c9c:	cd 01       	movw	r24, r26
    2c9e:	0e 94 8d 1a 	call	0x351a	; 0x351a <__floatsisf>

00002ca2 <.LVL4>:
    2ca2:	26 2f       	mov	r18, r22
    2ca4:	37 2f       	mov	r19, r23
    2ca6:	48 2f       	mov	r20, r24
    2ca8:	59 2f       	mov	r21, r25
    2caa:	a9 82       	std	Y+1, r10	; 0x01
    2cac:	ba 82       	std	Y+2, r11	; 0x02
    2cae:	9f 81       	ldd	r25, Y+7	; 0x07
    2cb0:	9b 83       	std	Y+3, r25	; 0x03
    2cb2:	ad 81       	ldd	r26, Y+5	; 0x05
    2cb4:	ac 83       	std	Y+4, r26	; 0x04
    2cb6:	69 81       	ldd	r22, Y+1	; 0x01
    2cb8:	7a 81       	ldd	r23, Y+2	; 0x02
    2cba:	8b 81       	ldd	r24, Y+3	; 0x03
    2cbc:	9c 81       	ldd	r25, Y+4	; 0x04
    2cbe:	0e 94 76 19 	call	0x32ec	; 0x32ec <__subsf3>

00002cc2 <.LVL5>:
    2cc2:	96 2e       	mov	r9, r22
    2cc4:	87 2e       	mov	r8, r23
    2cc6:	78 2e       	mov	r7, r24
    2cc8:	69 2e       	mov	r6, r25

00002cca <.LVL6>:
    2cca:	01 15       	cp	r16, r1
    2ccc:	11 05       	cpc	r17, r1
    2cce:	79 f5       	brne	.+94     	; 0x2d2e <.L11>

00002cd0 <.LVL7>:
    2cd0:	80 e3       	ldi	r24, 0x30	; 48
    2cd2:	f7 01       	movw	r30, r14
    2cd4:	80 83       	st	Z, r24

00002cd6 <.Loc.14>:
    2cd6:	21 e0       	ldi	r18, 0x01	; 1
    2cd8:	30 e0       	ldi	r19, 0x00	; 0
    2cda:	3e 83       	std	Y+6, r19	; 0x06
    2cdc:	2d 83       	std	Y+5, r18	; 0x05

00002cde <.L3>:
    2cde:	c1 14       	cp	r12, r1
    2ce0:	d1 04       	cpc	r13, r1
    2ce2:	09 f4       	brne	.+2      	; 0x2ce6 <.LVL9>

00002ce4 <L0^A>:
    2ce4:	93 c0       	rjmp	.+294    	; 0x2e0c <.L8>

00002ce6 <.LVL9>:
    2ce6:	ed 81       	ldd	r30, Y+5	; 0x05
    2ce8:	fe 81       	ldd	r31, Y+6	; 0x06
    2cea:	ee 0d       	add	r30, r14
    2cec:	ff 1d       	adc	r31, r15

00002cee <.Loc.19>:
    2cee:	8e e2       	ldi	r24, 0x2E	; 46
    2cf0:	80 83       	st	Z, r24

00002cf2 <.LBB2>:
    2cf2:	ad 81       	ldd	r26, Y+5	; 0x05
    2cf4:	be 81       	ldd	r27, Y+6	; 0x06
    2cf6:	11 96       	adiw	r26, 0x01	; 1

00002cf8 <.LVL11>:
    2cf8:	be 83       	std	Y+6, r27	; 0x06
    2cfa:	ad 83       	std	Y+5, r26	; 0x05

00002cfc <.LBB5>:
    2cfc:	00 e0       	ldi	r16, 0x00	; 0
    2cfe:	10 e0       	ldi	r17, 0x00	; 0

00002d00 <.Loc.26>:
    2d00:	81 c0       	rjmp	.+258    	; 0x2e04 <.L9>

00002d02 <.L4>:
    2d02:	c8 01       	movw	r24, r16
    2d04:	6a e0       	ldi	r22, 0x0A	; 10
    2d06:	70 e0       	ldi	r23, 0x00	; 0
    2d08:	0e 94 1e 19 	call	0x323c	; 0x323c <__divmodhi4>

00002d0c <.LVL13>:
    2d0c:	ed 81       	ldd	r30, Y+5	; 0x05
    2d0e:	fe 81       	ldd	r31, Y+6	; 0x06
    2d10:	ee 0d       	add	r30, r14
    2d12:	ff 1d       	adc	r31, r15

00002d14 <.Loc.32>:
    2d14:	80 5d       	subi	r24, 0xD0	; 208

00002d16 <.Loc.33>:
    2d16:	80 83       	st	Z, r24

00002d18 <.Loc.34>:
    2d18:	06 2f       	mov	r16, r22

00002d1a <.LVL15>:
    2d1a:	17 2f       	mov	r17, r23

00002d1c <.LVL16>:
    2d1c:	8d 81       	ldd	r24, Y+5	; 0x05
    2d1e:	9e 81       	ldd	r25, Y+6	; 0x06

00002d20 <.Loc.38>:
    2d20:	01 96       	adiw	r24, 0x01	; 1

00002d22 <.LVL18>:
    2d22:	9e 83       	std	Y+6, r25	; 0x06
    2d24:	8d 83       	std	Y+5, r24	; 0x05

00002d26 <.L2>:
    2d26:	01 15       	cp	r16, r1
    2d28:	11 05       	cpc	r17, r1
    2d2a:	59 f7       	brne	.-42     	; 0x2d02 <.L4>
    2d2c:	18 c0       	rjmp	.+48     	; 0x2d5e <.L5>

00002d2e <.L11>:
    2d2e:	1e 82       	std	Y+6, r1	; 0x06
    2d30:	1d 82       	std	Y+5, r1	; 0x05
    2d32:	f9 cf       	rjmp	.-14     	; 0x2d26 <.L2>

00002d34 <.L6>:
    2d34:	95 95       	asr	r25
    2d36:	87 95       	ror	r24

00002d38 <.Loc.45>:
    2d38:	08 17       	cp	r16, r24
    2d3a:	19 07       	cpc	r17, r25
    2d3c:	84 f6       	brge	.-96     	; 0x2cde <.L3>

00002d3e <.LBB9>:
    2d3e:	d7 01       	movw	r26, r14
    2d40:	a0 0f       	add	r26, r16
    2d42:	b1 1f       	adc	r27, r17

00002d44 <.Loc.48>:
    2d44:	8c 91       	ld	r24, X

00002d46 <.LVL22>:
    2d46:	ed 81       	ldd	r30, Y+5	; 0x05
    2d48:	fe 81       	ldd	r31, Y+6	; 0x06
    2d4a:	e0 1b       	sub	r30, r16
    2d4c:	f1 0b       	sbc	r31, r17

00002d4e <.Loc.51>:
    2d4e:	31 97       	sbiw	r30, 0x01	; 1
    2d50:	ee 0d       	add	r30, r14
    2d52:	ff 1d       	adc	r31, r15
    2d54:	90 81       	ld	r25, Z

00002d56 <.Loc.52>:
    2d56:	9c 93       	st	X, r25

00002d58 <.Loc.53>:
    2d58:	80 83       	st	Z, r24

00002d5a <.LBE9>:
    2d5a:	0f 5f       	subi	r16, 0xFF	; 255
    2d5c:	1f 4f       	sbci	r17, 0xFF	; 255

00002d5e <.L5>:
    2d5e:	8d 81       	ldd	r24, Y+5	; 0x05
    2d60:	9e 81       	ldd	r25, Y+6	; 0x06
    2d62:	99 23       	and	r25, r25
    2d64:	3c f7       	brge	.-50     	; 0x2d34 <.L6>
    2d66:	01 96       	adiw	r24, 0x01	; 1
    2d68:	e5 cf       	rjmp	.-54     	; 0x2d34 <.L6>

00002d6a <.L10>:
    2d6a:	20 e0       	ldi	r18, 0x00	; 0
    2d6c:	30 e0       	ldi	r19, 0x00	; 0
    2d6e:	40 e2       	ldi	r20, 0x20	; 32
    2d70:	51 e4       	ldi	r21, 0x41	; 65
    2d72:	99 82       	std	Y+1, r9	; 0x01
    2d74:	8a 82       	std	Y+2, r8	; 0x02
    2d76:	7b 82       	std	Y+3, r7	; 0x03
    2d78:	6c 82       	std	Y+4, r6	; 0x04
    2d7a:	69 81       	ldd	r22, Y+1	; 0x01
    2d7c:	7a 81       	ldd	r23, Y+2	; 0x02
    2d7e:	8b 81       	ldd	r24, Y+3	; 0x03
    2d80:	9c 81       	ldd	r25, Y+4	; 0x04
    2d82:	0e 94 19 1b 	call	0x3632	; 0x3632 <__mulsf3>

00002d86 <.LVL25>:
    2d86:	66 2e       	mov	r6, r22

00002d88 <.LVL26>:
    2d88:	77 2e       	mov	r7, r23

00002d8a <.LVL27>:
    2d8a:	88 2e       	mov	r8, r24

00002d8c <.LVL28>:
    2d8c:	99 2e       	mov	r9, r25

00002d8e <.LVL29>:
    2d8e:	69 83       	std	Y+1, r22	; 0x01
    2d90:	7a 83       	std	Y+2, r23	; 0x02
    2d92:	8b 83       	std	Y+3, r24	; 0x03
    2d94:	9c 83       	std	Y+4, r25	; 0x04
    2d96:	69 81       	ldd	r22, Y+1	; 0x01
    2d98:	7a 81       	ldd	r23, Y+2	; 0x02
    2d9a:	8b 81       	ldd	r24, Y+3	; 0x03
    2d9c:	9c 81       	ldd	r25, Y+4	; 0x04
    2d9e:	0e 94 55 1a 	call	0x34aa	; 0x34aa <__fixsfsi>

00002da2 <.LVL30>:
    2da2:	36 2f       	mov	r19, r22
    2da4:	46 2f       	mov	r20, r22
    2da6:	57 2f       	mov	r21, r23

00002da8 <.LVL31>:
    2da8:	ad 80       	ldd	r10, Y+5	; 0x05
    2daa:	be 80       	ldd	r11, Y+6	; 0x06
    2dac:	bf ef       	ldi	r27, 0xFF	; 255
    2dae:	ab 1a       	sub	r10, r27
    2db0:	bb 0a       	sbc	r11, r27

00002db2 <.LVL32>:
    2db2:	ed 81       	ldd	r30, Y+5	; 0x05
    2db4:	fe 81       	ldd	r31, Y+6	; 0x06
    2db6:	ee 0d       	add	r30, r14
    2db8:	ff 1d       	adc	r31, r15

00002dba <.Loc.69>:
    2dba:	80 e3       	ldi	r24, 0x30	; 48
    2dbc:	83 0f       	add	r24, r19

00002dbe <.Loc.70>:
    2dbe:	80 83       	st	Z, r24

00002dc0 <.Loc.71>:
    2dc0:	ca 01       	movw	r24, r20
    2dc2:	55 0f       	add	r21, r21
    2dc4:	aa 0b       	sbc	r26, r26
    2dc6:	bb 0b       	sbc	r27, r27
    2dc8:	89 83       	std	Y+1, r24	; 0x01
    2dca:	9a 83       	std	Y+2, r25	; 0x02
    2dcc:	ab 83       	std	Y+3, r26	; 0x03
    2dce:	bc 83       	std	Y+4, r27	; 0x04
    2dd0:	bc 01       	movw	r22, r24
    2dd2:	cd 01       	movw	r24, r26
    2dd4:	0e 94 8d 1a 	call	0x351a	; 0x351a <__floatsisf>

00002dd8 <.LVL33>:
    2dd8:	26 2f       	mov	r18, r22
    2dda:	37 2f       	mov	r19, r23
    2ddc:	48 2f       	mov	r20, r24
    2dde:	59 2f       	mov	r21, r25
    2de0:	69 82       	std	Y+1, r6	; 0x01
    2de2:	7a 82       	std	Y+2, r7	; 0x02
    2de4:	8b 82       	std	Y+3, r8	; 0x03
    2de6:	9c 82       	std	Y+4, r9	; 0x04
    2de8:	69 81       	ldd	r22, Y+1	; 0x01
    2dea:	7a 81       	ldd	r23, Y+2	; 0x02
    2dec:	8b 81       	ldd	r24, Y+3	; 0x03
    2dee:	9c 81       	ldd	r25, Y+4	; 0x04
    2df0:	0e 94 76 19 	call	0x32ec	; 0x32ec <__subsf3>

00002df4 <.LVL34>:
    2df4:	96 2e       	mov	r9, r22

00002df6 <.LVL35>:
    2df6:	87 2e       	mov	r8, r23

00002df8 <.LVL36>:
    2df8:	78 2e       	mov	r7, r24

00002dfa <.LVL37>:
    2dfa:	69 2e       	mov	r6, r25

00002dfc <.LBE3>:
    2dfc:	0f 5f       	subi	r16, 0xFF	; 255
    2dfe:	1f 4f       	sbci	r17, 0xFF	; 255

00002e00 <.LBB4>:
    2e00:	be 82       	std	Y+6, r11	; 0x06
    2e02:	ad 82       	std	Y+5, r10	; 0x05

00002e04 <.L9>:
    2e04:	0c 15       	cp	r16, r12
    2e06:	1d 05       	cpc	r17, r13
    2e08:	0c f4       	brge	.+2      	; 0x2e0c <.L8>

00002e0a <L0^A>:
    2e0a:	af cf       	rjmp	.-162    	; 0x2d6a <.L10>

00002e0c <.L8>:
    2e0c:	ad 81       	ldd	r26, Y+5	; 0x05
    2e0e:	be 81       	ldd	r27, Y+6	; 0x06
    2e10:	ae 0d       	add	r26, r14
    2e12:	bf 1d       	adc	r27, r15

00002e14 <.Loc.85>:
    2e14:	1c 92       	st	X, r1

00002e16 <.Loc.86>:
    2e16:	27 96       	adiw	r28, 0x07	; 7
    2e18:	0f b6       	in	r0, 0x3f	; 63
    2e1a:	f8 94       	cli
    2e1c:	de bf       	out	0x3e, r29	; 62
    2e1e:	0f be       	out	0x3f, r0	; 63
    2e20:	cd bf       	out	0x3d, r28	; 61
    2e22:	df 91       	pop	r29
    2e24:	cf 91       	pop	r28
    2e26:	1f 91       	pop	r17
    2e28:	0f 91       	pop	r16
    2e2a:	ff 90       	pop	r15
    2e2c:	ef 90       	pop	r14
    2e2e:	df 90       	pop	r13
    2e30:	cf 90       	pop	r12
    2e32:	bf 90       	pop	r11
    2e34:	af 90       	pop	r10
    2e36:	9f 90       	pop	r9
    2e38:	8f 90       	pop	r8
    2e3a:	7f 90       	pop	r7
    2e3c:	6f 90       	pop	r6
    2e3e:	08 95       	ret

00002e40 <integerToString>:
    2e40:	cf 92       	push	r12

00002e42 <.LCFI16>:
    2e42:	df 92       	push	r13

00002e44 <.LCFI17>:
    2e44:	ef 92       	push	r14

00002e46 <.LCFI18>:
    2e46:	ff 92       	push	r15

00002e48 <.LCFI19>:
    2e48:	0f 93       	push	r16

00002e4a <.LCFI20>:
    2e4a:	1f 93       	push	r17

00002e4c <.LCFI21>:
    2e4c:	cf 93       	push	r28

00002e4e <.LCFI22>:
    2e4e:	df 93       	push	r29

00002e50 <.LCFI23>:
    2e50:	c4 2f       	mov	r28, r20
    2e52:	d5 2f       	mov	r29, r21

00002e54 <.LVL43>:
    2e54:	61 15       	cp	r22, r1
    2e56:	71 05       	cpc	r23, r1
    2e58:	81 05       	cpc	r24, r1
    2e5a:	91 05       	cpc	r25, r1
    2e5c:	69 f5       	brne	.+90     	; 0x2eb8 <.L18>

00002e5e <.LVL44>:
    2e5e:	80 e3       	ldi	r24, 0x30	; 48
    2e60:	88 83       	st	Y, r24

00002e62 <.Loc.94>:
    2e62:	c1 2c       	mov	r12, r1
    2e64:	d1 2c       	mov	r13, r1
    2e66:	76 01       	movw	r14, r12
    2e68:	c3 94       	inc	r12

00002e6a <.L14>:
    2e6a:	fe 01       	movw	r30, r28
    2e6c:	ec 0d       	add	r30, r12
    2e6e:	fd 1d       	adc	r31, r13

00002e70 <.Loc.97>:
    2e70:	10 82       	st	Z, r1

00002e72 <.Loc.98>:
    2e72:	df 91       	pop	r29
    2e74:	cf 91       	pop	r28
    2e76:	1f 91       	pop	r17
    2e78:	0f 91       	pop	r16
    2e7a:	ff 90       	pop	r15
    2e7c:	ef 90       	pop	r14
    2e7e:	df 90       	pop	r13
    2e80:	cf 90       	pop	r12
    2e82:	08 95       	ret

00002e84 <.L15>:
    2e84:	2a e0       	ldi	r18, 0x0A	; 10
    2e86:	30 e0       	ldi	r19, 0x00	; 0
    2e88:	40 e0       	ldi	r20, 0x00	; 0
    2e8a:	50 e0       	ldi	r21, 0x00	; 0
    2e8c:	0e 94 32 19 	call	0x3264	; 0x3264 <__udivmodsi4>

00002e90 <.LVL47>:
    2e90:	fe 01       	movw	r30, r28
    2e92:	ec 0d       	add	r30, r12
    2e94:	fd 1d       	adc	r31, r13

00002e96 <.Loc.103>:
    2e96:	60 5d       	subi	r22, 0xD0	; 208

00002e98 <.Loc.104>:
    2e98:	60 83       	st	Z, r22

00002e9a <.Loc.105>:
    2e9a:	62 2f       	mov	r22, r18

00002e9c <.Loc.107>:
    2e9c:	73 2f       	mov	r23, r19

00002e9e <.Loc.108>:
    2e9e:	84 2f       	mov	r24, r20
    2ea0:	95 2f       	mov	r25, r21

00002ea2 <.LVL51>:
    2ea2:	2f ef       	ldi	r18, 0xFF	; 255
    2ea4:	c2 1a       	sub	r12, r18
    2ea6:	d2 0a       	sbc	r13, r18
    2ea8:	e2 0a       	sbc	r14, r18
    2eaa:	f2 0a       	sbc	r15, r18

00002eac <.L13>:
    2eac:	61 15       	cp	r22, r1
    2eae:	71 05       	cpc	r23, r1
    2eb0:	81 05       	cpc	r24, r1
    2eb2:	91 05       	cpc	r25, r1
    2eb4:	39 f7       	brne	.-50     	; 0x2e84 <.L15>
    2eb6:	15 c0       	rjmp	.+42     	; 0x2ee2 <.L16>

00002eb8 <.L18>:
    2eb8:	c1 2c       	mov	r12, r1
    2eba:	d1 2c       	mov	r13, r1
    2ebc:	76 01       	movw	r14, r12
    2ebe:	f6 cf       	rjmp	.-20     	; 0x2eac <.L13>

00002ec0 <.L17>:
    2ec0:	de 01       	movw	r26, r28
    2ec2:	a6 0f       	add	r26, r22
    2ec4:	b7 1f       	adc	r27, r23

00002ec6 <.Loc.116>:
    2ec6:	2c 91       	ld	r18, X

00002ec8 <.LVL55>:
    2ec8:	f6 01       	movw	r30, r12
    2eca:	e6 1b       	sub	r30, r22
    2ecc:	f7 0b       	sbc	r31, r23

00002ece <.Loc.119>:
    2ece:	31 97       	sbiw	r30, 0x01	; 1

00002ed0 <.Loc.120>:
    2ed0:	ec 0f       	add	r30, r28
    2ed2:	fd 1f       	adc	r31, r29
    2ed4:	30 81       	ld	r19, Z

00002ed6 <.Loc.121>:
    2ed6:	3c 93       	st	X, r19

00002ed8 <.Loc.122>:
    2ed8:	20 83       	st	Z, r18

00002eda <.LBE15>:
    2eda:	6f 5f       	subi	r22, 0xFF	; 255
    2edc:	7f 4f       	sbci	r23, 0xFF	; 255
    2ede:	8f 4f       	sbci	r24, 0xFF	; 255
    2ee0:	9f 4f       	sbci	r25, 0xFF	; 255

00002ee2 <.L16>:
    2ee2:	97 01       	movw	r18, r14
    2ee4:	86 01       	movw	r16, r12
    2ee6:	36 95       	lsr	r19
    2ee8:	27 95       	ror	r18
    2eea:	17 95       	ror	r17
    2eec:	07 95       	ror	r16

00002eee <.Loc.127>:
    2eee:	60 17       	cp	r22, r16
    2ef0:	71 07       	cpc	r23, r17
    2ef2:	82 07       	cpc	r24, r18
    2ef4:	93 07       	cpc	r25, r19
    2ef6:	20 f3       	brcs	.-56     	; 0x2ec0 <.L17>
    2ef8:	b8 cf       	rjmp	.-144    	; 0x2e6a <.L14>

00002efa <main>:
    2efa:	00 d0       	rcall	.+0      	; 0x2efc <L0^A>

00002efc <L0^A>:
    2efc:	00 d0       	rcall	.+0      	; 0x2efe <L0^A>

00002efe <L0^A>:
    2efe:	00 d0       	rcall	.+0      	; 0x2f00 <L0^A>

00002f00 <L0^A>:
    2f00:	0f 92       	push	r0

00002f02 <.LCFI0>:
    2f02:	cd b7       	in	r28, 0x3d	; 61
    2f04:	de b7       	in	r29, 0x3e	; 62

00002f06 <.LCFI1>:
    2f06:	41 e0       	ldi	r20, 0x01	; 1
    2f08:	60 e0       	ldi	r22, 0x00	; 0
    2f0a:	81 e0       	ldi	r24, 0x01	; 1
    2f0c:	0e 94 5c 0d 	call	0x1ab8	; 0x1ab8 <DIO_enuSetPinDirection>

00002f10 <.LVL0>:
    2f10:	41 e0       	ldi	r20, 0x01	; 1
    2f12:	60 e0       	ldi	r22, 0x00	; 0
    2f14:	82 e0       	ldi	r24, 0x02	; 2
    2f16:	0e 94 5c 0d 	call	0x1ab8	; 0x1ab8 <DIO_enuSetPinDirection>

00002f1a <.LVL1>:
    2f1a:	41 e0       	ldi	r20, 0x01	; 1
    2f1c:	60 e0       	ldi	r22, 0x00	; 0
    2f1e:	82 e0       	ldi	r24, 0x02	; 2
    2f20:	0e 94 94 0d 	call	0x1b28	; 0x1b28 <DIO_enuSetPinValue>

00002f24 <.LVL2>:
    2f24:	6f ef       	ldi	r22, 0xFF	; 255
    2f26:	83 e0       	ldi	r24, 0x03	; 3
    2f28:	0e 94 15 0d 	call	0x1a2a	; 0x1a2a <DIO_enuSetPortDirection>

00002f2c <.LVL3>:
    2f2c:	0e 94 fb 07 	call	0xff6	; 0xff6 <LCD_enuInit>

00002f30 <.LVL4>:
    2f30:	68 2f       	mov	r22, r24
    2f32:	79 2f       	mov	r23, r25

00002f34 <.Loc.7>:
    2f34:	70 93 af 00 	sts	0x00AF, r23	; 0x8000af <Global_error+0x1>
    2f38:	60 93 ae 00 	sts	0x00AE, r22	; 0x8000ae <Global_error>

00002f3c <.Loc.8>:
    2f3c:	61 15       	cp	r22, r1
    2f3e:	71 05       	cpc	r23, r1
    2f40:	09 f0       	breq	.+2      	; 0x2f44 <.L2>

00002f42 <L0^A>:
    2f42:	6d c0       	rjmp	.+218    	; 0x301e <.L15>

00002f44 <.L2>:
    2f44:	ee 24       	eor	r14, r14
    2f46:	e3 94       	inc	r14
    2f48:	04 e0       	ldi	r16, 0x04	; 4
    2f4a:	20 e0       	ldi	r18, 0x00	; 0
    2f4c:	40 e0       	ldi	r20, 0x00	; 0
    2f4e:	60 e0       	ldi	r22, 0x00	; 0
    2f50:	80 e2       	ldi	r24, 0x20	; 32
    2f52:	0e 94 8d 10 	call	0x211a	; 0x211a <SPI_enuMasterInit>

00002f56 <.LVL5>:
    2f56:	28 2f       	mov	r18, r24
    2f58:	39 2f       	mov	r19, r25

00002f5a <.Loc.12>:
    2f5a:	30 93 af 00 	sts	0x00AF, r19	; 0x8000af <Global_error+0x1>
    2f5e:	20 93 ae 00 	sts	0x00AE, r18	; 0x8000ae <Global_error>

00002f62 <.Loc.13>:
    2f62:	23 2b       	or	r18, r19
    2f64:	09 f0       	breq	.+2      	; 0x2f68 <.LBB72>

00002f66 <L0^A>:
    2f66:	33 c1       	rjmp	.+614    	; 0x31ce <.L14>

00002f68 <.LBB72>:
    2f68:	2f ef       	ldi	r18, 0xFF	; 255
    2f6a:	30 e7       	ldi	r19, 0x70	; 112
    2f6c:	42 e0       	ldi	r20, 0x02	; 2

00002f6e <.L1^B1>:
    2f6e:	21 50       	subi	r18, 0x01	; 1
    2f70:	30 40       	sbci	r19, 0x00	; 0
    2f72:	40 40       	sbci	r20, 0x00	; 0
    2f74:	e1 f7       	brne	.-8      	; 0x2f6e <.L1^B1>
    2f76:	00 c0       	rjmp	.+0      	; 0x2f78 <L0^A>

00002f78 <L0^A>:
	...

00002f7a <.LBE72>:
    2f7a:	88 e8       	ldi	r24, 0x88	; 136
    2f7c:	90 e0       	ldi	r25, 0x00	; 0
    2f7e:	0e 94 be 09 	call	0x137c	; 0x137c <LCD_enuClear>

00002f82 <.LVL8>:
    2f82:	64 ed       	ldi	r22, 0xD4	; 212
    2f84:	70 e0       	ldi	r23, 0x00	; 0
    2f86:	88 e8       	ldi	r24, 0x88	; 136
    2f88:	90 e0       	ldi	r25, 0x00	; 0
    2f8a:	0e 94 7e 09 	call	0x12fc	; 0x12fc <LCD_enuWriteString>

00002f8e <.LVL9>:
    2f8e:	ae 01       	movw	r20, r28
    2f90:	4f 5f       	subi	r20, 0xFF	; 255
    2f92:	5f 4f       	sbci	r21, 0xFF	; 255
    2f94:	63 e0       	ldi	r22, 0x03	; 3
    2f96:	82 e0       	ldi	r24, 0x02	; 2
    2f98:	0e 94 cc 0d 	call	0x1b98	; 0x1b98 <DIO_enuGetPinValue>

00002f9c <.LBB74>:
    2f9c:	5f e7       	ldi	r21, 0x7F	; 127
    2f9e:	88 e3       	ldi	r24, 0x38	; 56
    2fa0:	91 e0       	ldi	r25, 0x01	; 1

00002fa2 <.L1^B2>:
    2fa2:	51 50       	subi	r21, 0x01	; 1
    2fa4:	80 40       	sbci	r24, 0x00	; 0
    2fa6:	90 40       	sbci	r25, 0x00	; 0
    2fa8:	e1 f7       	brne	.-8      	; 0x2fa2 <.L1^B2>
    2faa:	00 c0       	rjmp	.+0      	; 0x2fac <L0^A>

00002fac <L0^A>:
	...

00002fae <.LBE74>:
    2fae:	10 e0       	ldi	r17, 0x00	; 0

00002fb0 <.L4>:
    2fb0:	09 81       	ldd	r16, Y+1	; 0x01
    2fb2:	01 11       	cpse	r16, r1
    2fb4:	38 c0       	rjmp	.+112    	; 0x3026 <.L16>

00002fb6 <.Loc.39>:
    2fb6:	61 2f       	mov	r22, r17
    2fb8:	83 e0       	ldi	r24, 0x03	; 3
    2fba:	0e 94 24 0d 	call	0x1a48	; 0x1a48 <DIO_enuSetPortValue>

00002fbe <.LVL12>:
    2fbe:	40 e0       	ldi	r20, 0x00	; 0
    2fc0:	60 e0       	ldi	r22, 0x00	; 0
    2fc2:	82 e0       	ldi	r24, 0x02	; 2
    2fc4:	0e 94 94 0d 	call	0x1b28	; 0x1b28 <DIO_enuSetPinValue>

00002fc8 <.LBB76>:
    2fc8:	8f e1       	ldi	r24, 0x1F	; 31
    2fca:	9e e4       	ldi	r25, 0x4E	; 78

00002fcc <.L1^B3>:
    2fcc:	01 97       	sbiw	r24, 0x01	; 1
    2fce:	f1 f7       	brne	.-4      	; 0x2fcc <.L1^B3>
    2fd0:	00 c0       	rjmp	.+0      	; 0x2fd2 <L0^A>

00002fd2 <L0^A>:
	...

00002fd4 <.LBE76>:
    2fd4:	81 2f       	mov	r24, r17
    2fd6:	0e 94 07 11 	call	0x220e	; 0x220e <SPI_voidSendByte>

00002fda <.LBB78>:
    2fda:	8f e1       	ldi	r24, 0x1F	; 31
    2fdc:	9e e4       	ldi	r25, 0x4E	; 78

00002fde <.L1^B4>:
    2fde:	01 97       	sbiw	r24, 0x01	; 1
    2fe0:	f1 f7       	brne	.-4      	; 0x2fde <.L1^B4>
    2fe2:	00 c0       	rjmp	.+0      	; 0x2fe4 <L0^A>

00002fe4 <L0^A>:
	...

00002fe6 <.LBE78>:
    2fe6:	81 2f       	mov	r24, r17
    2fe8:	0e 94 0f 11 	call	0x221e	; 0x221e <SPI_enuSendReceiveByte>

00002fec <.LVL17>:
    2fec:	81 13       	cpse	r24, r17
    2fee:	e0 cf       	rjmp	.-64     	; 0x2fb0 <.L4>

00002ff0 <.LVL18>:
    2ff0:	41 e0       	ldi	r20, 0x01	; 1
    2ff2:	60 e0       	ldi	r22, 0x00	; 0
    2ff4:	82 e0       	ldi	r24, 0x02	; 2
    2ff6:	0e 94 94 0d 	call	0x1b28	; 0x1b28 <DIO_enuSetPinValue>

00002ffa <.LBB80>:
    2ffa:	8f e1       	ldi	r24, 0x1F	; 31
    2ffc:	9e e4       	ldi	r25, 0x4E	; 78

00002ffe <.L1^B5>:
    2ffe:	01 97       	sbiw	r24, 0x01	; 1
    3000:	f1 f7       	brne	.-4      	; 0x2ffe <.L1^B5>
    3002:	00 c0       	rjmp	.+0      	; 0x3004 <L0^A>

00003004 <L0^A>:
	...

00003006 <.LBE80>:
    3006:	ae 01       	movw	r20, r28
    3008:	4f 5f       	subi	r20, 0xFF	; 255
    300a:	5f 4f       	sbci	r21, 0xFF	; 255
    300c:	63 e0       	ldi	r22, 0x03	; 3
    300e:	82 e0       	ldi	r24, 0x02	; 2
    3010:	0e 94 cc 0d 	call	0x1b98	; 0x1b98 <DIO_enuGetPinValue>

00003014 <.LVL21>:
    3014:	1e 5f       	subi	r17, 0xFE	; 254

00003016 <.LVL22>:
    3016:	18 30       	cpi	r17, 0x08	; 8
    3018:	59 f6       	brne	.-106    	; 0x2fb0 <.L4>

0000301a <.Loc.79>:
    301a:	10 2f       	mov	r17, r16

0000301c <.LVL23>:
    301c:	c9 cf       	rjmp	.-110    	; 0x2fb0 <.L4>

0000301e <.L15>:
    301e:	82 e0       	ldi	r24, 0x02	; 2
    3020:	0e 94 24 0d 	call	0x1a48	; 0x1a48 <DIO_enuSetPortValue>

00003024 <.LVL24>:
    3024:	8f cf       	rjmp	.-226    	; 0x2f44 <.L2>

00003026 <.L16>:
    3026:	10 93 4d 01 	sts	0x014D, r17	; 0x80014d <Global_minerCount>

0000302a <.Loc.84>:
    302a:	88 e8       	ldi	r24, 0x88	; 136
    302c:	90 e0       	ldi	r25, 0x00	; 0
    302e:	0e 94 be 09 	call	0x137c	; 0x137c <LCD_enuClear>

00003032 <.LVL26>:
    3032:	65 ee       	ldi	r22, 0xE5	; 229
    3034:	70 e0       	ldi	r23, 0x00	; 0
    3036:	88 e8       	ldi	r24, 0x88	; 136
    3038:	90 e0       	ldi	r25, 0x00	; 0
    303a:	0e 94 7e 09 	call	0x12fc	; 0x12fc <LCD_enuWriteString>

0000303e <.LVL27>:
    303e:	40 e0       	ldi	r20, 0x00	; 0
    3040:	61 e0       	ldi	r22, 0x01	; 1
    3042:	88 e8       	ldi	r24, 0x88	; 136
    3044:	90 e0       	ldi	r25, 0x00	; 0
    3046:	0e 94 27 09 	call	0x124e	; 0x124e <LCD_enuGotoPosition>

0000304a <.LVL28>:
    304a:	80 91 4d 01 	lds	r24, 0x014D	; 0x80014d <Global_minerCount>
    304e:	28 2f       	mov	r18, r24
    3050:	30 e0       	ldi	r19, 0x00	; 0
    3052:	40 e0       	ldi	r20, 0x00	; 0
    3054:	50 e0       	ldi	r21, 0x00	; 0
    3056:	2c 83       	std	Y+4, r18	; 0x04
    3058:	3d 83       	std	Y+5, r19	; 0x05
    305a:	4e 83       	std	Y+6, r20	; 0x06
    305c:	5f 83       	std	Y+7, r21	; 0x07
    305e:	4e e4       	ldi	r20, 0x4E	; 78
    3060:	51 e0       	ldi	r21, 0x01	; 1
    3062:	6c 81       	ldd	r22, Y+4	; 0x04
    3064:	7d 81       	ldd	r23, Y+5	; 0x05
    3066:	8e 81       	ldd	r24, Y+6	; 0x06
    3068:	9f 81       	ldd	r25, Y+7	; 0x07
    306a:	0e 94 20 17 	call	0x2e40	; 0x2e40 <integerToString>

0000306e <.LVL29>:
    306e:	6e e4       	ldi	r22, 0x4E	; 78
    3070:	71 e0       	ldi	r23, 0x01	; 1
    3072:	88 e8       	ldi	r24, 0x88	; 136
    3074:	90 e0       	ldi	r25, 0x00	; 0
    3076:	0e 94 7e 09 	call	0x12fc	; 0x12fc <LCD_enuWriteString>

0000307a <.LVL30>:
    307a:	6d ed       	ldi	r22, 0xDD	; 221
    307c:	70 e0       	ldi	r23, 0x00	; 0
    307e:	88 e8       	ldi	r24, 0x88	; 136
    3080:	90 e0       	ldi	r25, 0x00	; 0
    3082:	0e 94 7e 09 	call	0x12fc	; 0x12fc <LCD_enuWriteString>

00003086 <.LBB82>:
    3086:	3f ef       	ldi	r19, 0xFF	; 255
    3088:	40 e7       	ldi	r20, 0x70	; 112
    308a:	52 e0       	ldi	r21, 0x02	; 2

0000308c <.L1^B6>:
    308c:	31 50       	subi	r19, 0x01	; 1
    308e:	40 40       	sbci	r20, 0x00	; 0
    3090:	50 40       	sbci	r21, 0x00	; 0
    3092:	e1 f7       	brne	.-8      	; 0x308c <.L1^B6>
    3094:	00 c0       	rjmp	.+0      	; 0x3096 <L0^A>

00003096 <L0^A>:
	...

00003098 <.LBE82>:
    3098:	88 e8       	ldi	r24, 0x88	; 136
    309a:	90 e0       	ldi	r25, 0x00	; 0
    309c:	0e 94 be 09 	call	0x137c	; 0x137c <LCD_enuClear>

000030a0 <.LVL33>:
    30a0:	61 ef       	ldi	r22, 0xF1	; 241
    30a2:	70 e0       	ldi	r23, 0x00	; 0
    30a4:	88 e8       	ldi	r24, 0x88	; 136
    30a6:	90 e0       	ldi	r25, 0x00	; 0
    30a8:	0e 94 7e 09 	call	0x12fc	; 0x12fc <LCD_enuWriteString>

000030ac <.LBB84>:
    30ac:	8f ef       	ldi	r24, 0xFF	; 255
    30ae:	90 e7       	ldi	r25, 0x70	; 112
    30b0:	22 e0       	ldi	r18, 0x02	; 2

000030b2 <.L1^B7>:
    30b2:	81 50       	subi	r24, 0x01	; 1
    30b4:	90 40       	sbci	r25, 0x00	; 0
    30b6:	20 40       	sbci	r18, 0x00	; 0
    30b8:	e1 f7       	brne	.-8      	; 0x30b2 <.L1^B7>
    30ba:	00 c0       	rjmp	.+0      	; 0x30bc <L0^A>

000030bc <L0^A>:
	...

000030be <.LBE84>:
    30be:	60 91 4d 01 	lds	r22, 0x014D	; 0x80014d <Global_minerCount>
    30c2:	70 e0       	ldi	r23, 0x00	; 0
    30c4:	8f ef       	ldi	r24, 0xFF	; 255
    30c6:	90 e0       	ldi	r25, 0x00	; 0
    30c8:	0e 94 1e 19 	call	0x323c	; 0x323c <__divmodhi4>

000030cc <.Loc.112>:
    30cc:	06 2f       	mov	r16, r22

000030ce <.LBB86>:
    30ce:	10 e0       	ldi	r17, 0x00	; 0

000030d0 <.L7>:
    30d0:	80 91 4d 01 	lds	r24, 0x014D	; 0x80014d <Global_minerCount>
    30d4:	18 17       	cp	r17, r24
    30d6:	d0 f4       	brcc	.+52     	; 0x310c <.L17>

000030d8 <.Loc.117>:
    30d8:	61 2f       	mov	r22, r17
    30da:	83 e0       	ldi	r24, 0x03	; 3
    30dc:	0e 94 24 0d 	call	0x1a48	; 0x1a48 <DIO_enuSetPortValue>

000030e0 <.LVL38>:
    30e0:	40 e0       	ldi	r20, 0x00	; 0
    30e2:	60 e0       	ldi	r22, 0x00	; 0
    30e4:	82 e0       	ldi	r24, 0x02	; 2
    30e6:	0e 94 94 0d 	call	0x1b28	; 0x1b28 <DIO_enuSetPinValue>

000030ea <.LVL39>:
    30ea:	10 9f       	mul	r17, r16
    30ec:	80 2d       	mov	r24, r0
    30ee:	11 24       	eor	r1, r1
    30f0:	0e 94 07 11 	call	0x220e	; 0x220e <SPI_voidSendByte>

000030f4 <.LVL40>:
    30f4:	1f 5f       	subi	r17, 0xFF	; 255

000030f6 <.Loc.122>:
    30f6:	01 9f       	mul	r16, r17
    30f8:	80 2d       	mov	r24, r0
    30fa:	11 24       	eor	r1, r1
    30fc:	0e 94 07 11 	call	0x220e	; 0x220e <SPI_voidSendByte>

00003100 <.LVL42>:
    3100:	41 e0       	ldi	r20, 0x01	; 1
    3102:	60 e0       	ldi	r22, 0x00	; 0
    3104:	82 e0       	ldi	r24, 0x02	; 2
    3106:	0e 94 94 0d 	call	0x1b28	; 0x1b28 <DIO_enuSetPinValue>

0000310a <.LVL43>:
    310a:	e2 cf       	rjmp	.-60     	; 0x30d0 <.L7>

0000310c <.L17>:
    310c:	88 e8       	ldi	r24, 0x88	; 136
    310e:	90 e0       	ldi	r25, 0x00	; 0
    3110:	0e 94 be 09 	call	0x137c	; 0x137c <LCD_enuClear>

00003114 <.LVL44>:
    3114:	60 e0       	ldi	r22, 0x00	; 0
    3116:	71 e0       	ldi	r23, 0x01	; 1
    3118:	88 e8       	ldi	r24, 0x88	; 136
    311a:	90 e0       	ldi	r25, 0x00	; 0
    311c:	0e 94 7e 09 	call	0x12fc	; 0x12fc <LCD_enuWriteString>

00003120 <.LBB87>:
    3120:	3f ef       	ldi	r19, 0xFF	; 255
    3122:	40 e7       	ldi	r20, 0x70	; 112
    3124:	52 e0       	ldi	r21, 0x02	; 2

00003126 <.L1^B8>:
    3126:	31 50       	subi	r19, 0x01	; 1
    3128:	40 40       	sbci	r20, 0x00	; 0
    312a:	50 40       	sbci	r21, 0x00	; 0
    312c:	e1 f7       	brne	.-8      	; 0x3126 <.L1^B8>
    312e:	00 c0       	rjmp	.+0      	; 0x3130 <L0^A>

00003130 <L0^A>:
	...

00003132 <.LBB89>:
    3132:	8f e1       	ldi	r24, 0x1F	; 31
    3134:	9e e4       	ldi	r25, 0x4E	; 78

00003136 <.L1^B9>:
    3136:	01 97       	sbiw	r24, 0x01	; 1
    3138:	f1 f7       	brne	.-4      	; 0x3136 <.L1^B9>
    313a:	00 c0       	rjmp	.+0      	; 0x313c <L0^A>

0000313c <L0^A>:
	...

0000313e <.Loc.144>:
    313e:	14 c0       	rjmp	.+40     	; 0x3168 <.L11>

00003140 <.L10>:
    3140:	ae 01       	movw	r20, r28
    3142:	4d 5f       	subi	r20, 0xFD	; 253
    3144:	5f 4f       	sbci	r21, 0xFF	; 255
    3146:	63 e0       	ldi	r22, 0x03	; 3
    3148:	81 e0       	ldi	r24, 0x01	; 1
    314a:	0e 94 cc 0d 	call	0x1b98	; 0x1b98 <DIO_enuGetPinValue>

0000314e <.LVL48>:
    314e:	ae 01       	movw	r20, r28
    3150:	4e 5f       	subi	r20, 0xFE	; 254
    3152:	5f 4f       	sbci	r21, 0xFF	; 255
    3154:	64 e0       	ldi	r22, 0x04	; 4
    3156:	81 e0       	ldi	r24, 0x01	; 1
    3158:	0e 94 cc 0d 	call	0x1b98	; 0x1b98 <DIO_enuGetPinValue>

0000315c <.L9>:
    315c:	8b 81       	ldd	r24, Y+3	; 0x03

0000315e <.Loc.150>:
    315e:	81 30       	cpi	r24, 0x01	; 1
    3160:	79 f7       	brne	.-34     	; 0x3140 <.L10>

00003162 <.Loc.151>:
    3162:	8a 81       	ldd	r24, Y+2	; 0x02

00003164 <.Loc.152>:
    3164:	81 30       	cpi	r24, 0x01	; 1
    3166:	61 f7       	brne	.-40     	; 0x3140 <.L10>

00003168 <.L11>:
    3168:	88 e8       	ldi	r24, 0x88	; 136
    316a:	90 e0       	ldi	r25, 0x00	; 0
    316c:	0e 94 be 09 	call	0x137c	; 0x137c <LCD_enuClear>

00003170 <.LVL50>:
    3170:	6c e0       	ldi	r22, 0x0C	; 12
    3172:	71 e0       	ldi	r23, 0x01	; 1
    3174:	88 e8       	ldi	r24, 0x88	; 136
    3176:	90 e0       	ldi	r25, 0x00	; 0
    3178:	0e 94 7e 09 	call	0x12fc	; 0x12fc <LCD_enuWriteString>

0000317c <.LVL51>:
    317c:	41 e0       	ldi	r20, 0x01	; 1
    317e:	60 e0       	ldi	r22, 0x00	; 0
    3180:	81 e0       	ldi	r24, 0x01	; 1
    3182:	0e 94 94 0d 	call	0x1b28	; 0x1b28 <DIO_enuSetPinValue>

00003186 <.LVL52>:
    3186:	40 e0       	ldi	r20, 0x00	; 0
    3188:	60 e0       	ldi	r22, 0x00	; 0
    318a:	81 e0       	ldi	r24, 0x01	; 1
    318c:	0e 94 94 0d 	call	0x1b28	; 0x1b28 <DIO_enuSetPinValue>

00003190 <.LBB92>:
    3190:	9f ef       	ldi	r25, 0xFF	; 255
    3192:	20 e7       	ldi	r18, 0x70	; 112
    3194:	32 e0       	ldi	r19, 0x02	; 2

00003196 <.L1^B10>:
    3196:	91 50       	subi	r25, 0x01	; 1
    3198:	20 40       	sbci	r18, 0x00	; 0
    319a:	30 40       	sbci	r19, 0x00	; 0
    319c:	e1 f7       	brne	.-8      	; 0x3196 <.L1^B10>
    319e:	00 c0       	rjmp	.+0      	; 0x31a0 <L0^A>

000031a0 <L0^A>:
	...

000031a2 <.LBE92>:
    31a2:	88 e8       	ldi	r24, 0x88	; 136
    31a4:	90 e0       	ldi	r25, 0x00	; 0
    31a6:	0e 94 be 09 	call	0x137c	; 0x137c <LCD_enuClear>

000031aa <.LVL55>:
    31aa:	6c e1       	ldi	r22, 0x1C	; 28
    31ac:	71 e0       	ldi	r23, 0x01	; 1
    31ae:	88 e8       	ldi	r24, 0x88	; 136
    31b0:	90 e0       	ldi	r25, 0x00	; 0
    31b2:	0e 94 7e 09 	call	0x12fc	; 0x12fc <LCD_enuWriteString>

000031b6 <.LBB94>:
    31b6:	4f ef       	ldi	r20, 0xFF	; 255
    31b8:	50 e7       	ldi	r21, 0x70	; 112
    31ba:	82 e0       	ldi	r24, 0x02	; 2

000031bc <.L1^B11>:
    31bc:	41 50       	subi	r20, 0x01	; 1
    31be:	50 40       	sbci	r21, 0x00	; 0
    31c0:	80 40       	sbci	r24, 0x00	; 0
    31c2:	e1 f7       	brne	.-8      	; 0x31bc <.L1^B11>
    31c4:	00 c0       	rjmp	.+0      	; 0x31c6 <L0^A>

000031c6 <L0^A>:
	...

000031c8 <.LBE94>:
    31c8:	1b 82       	std	Y+3, r1	; 0x03

000031ca <.Loc.180>:
    31ca:	1a 82       	std	Y+2, r1	; 0x02

000031cc <.Loc.182>:
    31cc:	c7 cf       	rjmp	.-114    	; 0x315c <.L9>

000031ce <.L14>:
    31ce:	88 e8       	ldi	r24, 0x88	; 136
    31d0:	90 e0       	ldi	r25, 0x00	; 0
    31d2:	0e 94 be 09 	call	0x137c	; 0x137c <LCD_enuClear>

000031d6 <.LVL59>:
    31d6:	64 ec       	ldi	r22, 0xC4	; 196
    31d8:	70 e0       	ldi	r23, 0x00	; 0
    31da:	88 e8       	ldi	r24, 0x88	; 136
    31dc:	90 e0       	ldi	r25, 0x00	; 0
    31de:	0e 94 7e 09 	call	0x12fc	; 0x12fc <LCD_enuWriteString>

000031e2 <.LVL60>:
    31e2:	80 e0       	ldi	r24, 0x00	; 0
    31e4:	90 e0       	ldi	r25, 0x00	; 0
    31e6:	27 96       	adiw	r28, 0x07	; 7
    31e8:	0f b6       	in	r0, 0x3f	; 63
    31ea:	f8 94       	cli
    31ec:	de bf       	out	0x3e, r29	; 62
    31ee:	0f be       	out	0x3f, r0	; 63
    31f0:	cd bf       	out	0x3d, r28	; 61
    31f2:	08 95       	ret

000031f4 <__mulsi3>:
    31f4:	db 01       	movw	r26, r22

000031f6 <.Loc.1>:
    31f6:	8f 93       	push	r24

000031f8 <.Loc.2>:
    31f8:	9f 93       	push	r25

000031fa <.Loc.3>:
    31fa:	0e 94 54 19 	call	0x32a8	; 0x32a8 <__muluhisi3>

000031fe <.Loc.4>:
    31fe:	bf 91       	pop	r27

00003200 <.Loc.5>:
    3200:	af 91       	pop	r26

00003202 <.Loc.6>:
    3202:	a2 9f       	mul	r26, r18

00003204 <.Loc.7>:
    3204:	80 0d       	add	r24, r0

00003206 <.Loc.8>:
    3206:	91 1d       	adc	r25, r1

00003208 <.Loc.9>:
    3208:	a3 9f       	mul	r26, r19

0000320a <.Loc.10>:
    320a:	90 0d       	add	r25, r0

0000320c <.Loc.11>:
    320c:	b2 9f       	mul	r27, r18

0000320e <.Loc.12>:
    320e:	90 0d       	add	r25, r0

00003210 <.Loc.13>:
    3210:	11 24       	eor	r1, r1

00003212 <.Loc.14>:
    3212:	08 95       	ret

00003214 <__udivmodhi4>:
    3214:	aa 1b       	sub	r26, r26

00003216 <.Loc.1>:
    3216:	bb 1b       	sub	r27, r27

00003218 <.Loc.2>:
    3218:	51 e1       	ldi	r21, 0x11	; 17

0000321a <.Loc.3>:
    321a:	07 c0       	rjmp	.+14     	; 0x322a <__udivmodhi4_ep>

0000321c <__udivmodhi4_loop>:
    321c:	aa 1f       	adc	r26, r26

0000321e <.Loc.5>:
    321e:	bb 1f       	adc	r27, r27

00003220 <.Loc.6>:
    3220:	a6 17       	cp	r26, r22

00003222 <.Loc.7>:
    3222:	b7 07       	cpc	r27, r23

00003224 <.Loc.8>:
    3224:	10 f0       	brcs	.+4      	; 0x322a <__udivmodhi4_ep>

00003226 <.Loc.9>:
    3226:	a6 1b       	sub	r26, r22

00003228 <.Loc.10>:
    3228:	b7 0b       	sbc	r27, r23

0000322a <__udivmodhi4_ep>:
    322a:	88 1f       	adc	r24, r24

0000322c <.Loc.12>:
    322c:	99 1f       	adc	r25, r25

0000322e <.Loc.13>:
    322e:	5a 95       	dec	r21

00003230 <.Loc.14>:
    3230:	a9 f7       	brne	.-22     	; 0x321c <__udivmodhi4_loop>

00003232 <.Loc.15>:
    3232:	80 95       	com	r24

00003234 <.Loc.16>:
    3234:	90 95       	com	r25

00003236 <.Loc.17>:
    3236:	bc 01       	movw	r22, r24

00003238 <.Loc.18>:
    3238:	cd 01       	movw	r24, r26

0000323a <.Loc.19>:
    323a:	08 95       	ret

0000323c <__divmodhi4>:
    323c:	97 fb       	bst	r25, 7

0000323e <.Loc.1>:
    323e:	07 2e       	mov	r0, r23

00003240 <.Loc.2>:
    3240:	16 f4       	brtc	.+4      	; 0x3246 <.L0^B1>

00003242 <.Loc.3>:
    3242:	00 94       	com	r0

00003244 <.Loc.4>:
    3244:	07 d0       	rcall	.+14     	; 0x3254 <__divmodhi4_neg1>

00003246 <.L0^B1>:
    3246:	77 fd       	sbrc	r23, 7

00003248 <.Loc.6>:
    3248:	09 d0       	rcall	.+18     	; 0x325c <__divmodhi4_neg2>

0000324a <.Loc.7>:
    324a:	0e 94 0a 19 	call	0x3214	; 0x3214 <__udivmodhi4>

0000324e <.Loc.8>:
    324e:	07 fc       	sbrc	r0, 7

00003250 <.Loc.9>:
    3250:	05 d0       	rcall	.+10     	; 0x325c <__divmodhi4_neg2>

00003252 <.Loc.10>:
    3252:	3e f4       	brtc	.+14     	; 0x3262 <__divmodhi4_exit>

00003254 <__divmodhi4_neg1>:
    3254:	90 95       	com	r25

00003256 <.Loc.12>:
    3256:	81 95       	neg	r24

00003258 <.Loc.13>:
    3258:	9f 4f       	sbci	r25, 0xFF	; 255

0000325a <.Loc.14>:
    325a:	08 95       	ret

0000325c <__divmodhi4_neg2>:
    325c:	70 95       	com	r23

0000325e <.Loc.16>:
    325e:	61 95       	neg	r22

00003260 <.Loc.17>:
    3260:	7f 4f       	sbci	r23, 0xFF	; 255

00003262 <__divmodhi4_exit>:
    3262:	08 95       	ret

00003264 <__udivmodsi4>:
    3264:	a1 e2       	ldi	r26, 0x21	; 33

00003266 <.Loc.1>:
    3266:	1a 2e       	mov	r1, r26

00003268 <.Loc.2>:
    3268:	aa 1b       	sub	r26, r26

0000326a <.Loc.3>:
    326a:	bb 1b       	sub	r27, r27

0000326c <.Loc.4>:
    326c:	fd 01       	movw	r30, r26

0000326e <.Loc.5>:
    326e:	0d c0       	rjmp	.+26     	; 0x328a <__udivmodsi4_ep>

00003270 <__udivmodsi4_loop>:
    3270:	aa 1f       	adc	r26, r26

00003272 <.Loc.7>:
    3272:	bb 1f       	adc	r27, r27

00003274 <.Loc.8>:
    3274:	ee 1f       	adc	r30, r30

00003276 <.Loc.9>:
    3276:	ff 1f       	adc	r31, r31

00003278 <.Loc.10>:
    3278:	a2 17       	cp	r26, r18

0000327a <.Loc.11>:
    327a:	b3 07       	cpc	r27, r19

0000327c <.Loc.12>:
    327c:	e4 07       	cpc	r30, r20

0000327e <.Loc.13>:
    327e:	f5 07       	cpc	r31, r21

00003280 <.Loc.14>:
    3280:	20 f0       	brcs	.+8      	; 0x328a <__udivmodsi4_ep>

00003282 <.Loc.15>:
    3282:	a2 1b       	sub	r26, r18

00003284 <.Loc.16>:
    3284:	b3 0b       	sbc	r27, r19

00003286 <.Loc.17>:
    3286:	e4 0b       	sbc	r30, r20

00003288 <.Loc.18>:
    3288:	f5 0b       	sbc	r31, r21

0000328a <__udivmodsi4_ep>:
    328a:	66 1f       	adc	r22, r22

0000328c <.Loc.20>:
    328c:	77 1f       	adc	r23, r23

0000328e <.Loc.21>:
    328e:	88 1f       	adc	r24, r24

00003290 <.Loc.22>:
    3290:	99 1f       	adc	r25, r25

00003292 <.Loc.23>:
    3292:	1a 94       	dec	r1

00003294 <.Loc.24>:
    3294:	69 f7       	brne	.-38     	; 0x3270 <__udivmodsi4_loop>

00003296 <.Loc.25>:
    3296:	60 95       	com	r22

00003298 <.Loc.26>:
    3298:	70 95       	com	r23

0000329a <.Loc.27>:
    329a:	80 95       	com	r24

0000329c <.Loc.28>:
    329c:	90 95       	com	r25

0000329e <.Loc.29>:
    329e:	9b 01       	movw	r18, r22

000032a0 <.Loc.30>:
    32a0:	ac 01       	movw	r20, r24

000032a2 <.Loc.31>:
    32a2:	bd 01       	movw	r22, r26

000032a4 <.Loc.32>:
    32a4:	cf 01       	movw	r24, r30

000032a6 <.Loc.33>:
    32a6:	08 95       	ret

000032a8 <__muluhisi3>:
    32a8:	0e 94 67 19 	call	0x32ce	; 0x32ce <__umulhisi3>

000032ac <.Loc.1>:
    32ac:	a5 9f       	mul	r26, r21

000032ae <.Loc.2>:
    32ae:	90 0d       	add	r25, r0

000032b0 <.Loc.3>:
    32b0:	b4 9f       	mul	r27, r20

000032b2 <.Loc.4>:
    32b2:	90 0d       	add	r25, r0

000032b4 <.Loc.5>:
    32b4:	a4 9f       	mul	r26, r20

000032b6 <.Loc.6>:
    32b6:	80 0d       	add	r24, r0

000032b8 <.Loc.7>:
    32b8:	91 1d       	adc	r25, r1

000032ba <.Loc.8>:
    32ba:	11 24       	eor	r1, r1

000032bc <.Loc.9>:
    32bc:	08 95       	ret

000032be <__mulshisi3>:
    32be:	b7 ff       	sbrs	r27, 7

000032c0 <.Loc.1>:
    32c0:	0c 94 54 19 	jmp	0x32a8	; 0x32a8 <__muluhisi3>

000032c4 <__mulohisi3>:
    32c4:	0e 94 54 19 	call	0x32a8	; 0x32a8 <__muluhisi3>

000032c8 <.Loc.3>:
    32c8:	82 1b       	sub	r24, r18

000032ca <.Loc.4>:
    32ca:	93 0b       	sbc	r25, r19

000032cc <.Loc.5>:
    32cc:	08 95       	ret

000032ce <__umulhisi3>:
    32ce:	a2 9f       	mul	r26, r18

000032d0 <.Loc.1>:
    32d0:	b0 01       	movw	r22, r0

000032d2 <.Loc.2>:
    32d2:	b3 9f       	mul	r27, r19

000032d4 <.Loc.3>:
    32d4:	c0 01       	movw	r24, r0

000032d6 <.Loc.4>:
    32d6:	a3 9f       	mul	r26, r19

000032d8 <.Loc.5>:
    32d8:	70 0d       	add	r23, r0

000032da <.Loc.6>:
    32da:	81 1d       	adc	r24, r1

000032dc <.Loc.7>:
    32dc:	11 24       	eor	r1, r1

000032de <.Loc.8>:
    32de:	91 1d       	adc	r25, r1

000032e0 <.Loc.9>:
    32e0:	b2 9f       	mul	r27, r18

000032e2 <.Loc.10>:
    32e2:	70 0d       	add	r23, r0

000032e4 <.Loc.11>:
    32e4:	81 1d       	adc	r24, r1

000032e6 <.Loc.12>:
    32e6:	11 24       	eor	r1, r1

000032e8 <.Loc.13>:
    32e8:	91 1d       	adc	r25, r1

000032ea <.Loc.14>:
    32ea:	08 95       	ret

000032ec <__subsf3>:
    32ec:	50 58       	subi	r21, 0x80	; 128

000032ee <__addsf3>:
    32ee:	bb 27       	eor	r27, r27
    32f0:	aa 27       	eor	r26, r26
    32f2:	0e 94 8e 19 	call	0x331c	; 0x331c <__addsf3x>
    32f6:	0c 94 df 1a 	jmp	0x35be	; 0x35be <__fp_round>
    32fa:	0e 94 d1 1a 	call	0x35a2	; 0x35a2 <__fp_pscA>
    32fe:	38 f0       	brcs	.+14     	; 0x330e <.LLST15+0x4>
    3300:	0e 94 d8 1a 	call	0x35b0	; 0x35b0 <__fp_pscB>
    3304:	20 f0       	brcs	.+8      	; 0x330e <.LLST15+0x4>
    3306:	39 f4       	brne	.+14     	; 0x3316 <.LLST15+0xc>
    3308:	9f 3f       	cpi	r25, 0xFF	; 255
    330a:	19 f4       	brne	.+6      	; 0x3312 <.LLST15+0x8>
    330c:	26 f4       	brtc	.+8      	; 0x3316 <.LLST15+0xc>
    330e:	0c 94 ce 1a 	jmp	0x359c	; 0x359c <__fp_nan>
    3312:	0e f4       	brtc	.+2      	; 0x3316 <.LLST15+0xc>
    3314:	e0 95       	com	r30
    3316:	e7 fb       	bst	r30, 7
    3318:	0c 94 c8 1a 	jmp	0x3590	; 0x3590 <__fp_inf>

0000331c <__addsf3x>:
    331c:	e9 2f       	mov	r30, r25
    331e:	0e 94 f0 1a 	call	0x35e0	; 0x35e0 <__fp_split3>
    3322:	58 f3       	brcs	.-42     	; 0x32fa <__addsf3+0xc>
    3324:	ba 17       	cp	r27, r26
    3326:	62 07       	cpc	r22, r18
    3328:	73 07       	cpc	r23, r19
    332a:	84 07       	cpc	r24, r20
    332c:	95 07       	cpc	r25, r21
    332e:	20 f0       	brcs	.+8      	; 0x3338 <__addsf3x+0x1c>
    3330:	79 f4       	brne	.+30     	; 0x3350 <__addsf3x+0x34>
    3332:	a6 f5       	brtc	.+104    	; 0x339c <.LLST16+0x2a>
    3334:	0c 94 12 1b 	jmp	0x3624	; 0x3624 <__fp_zero>
    3338:	0e f4       	brtc	.+2      	; 0x333c <__addsf3x+0x20>
    333a:	e0 95       	com	r30
    333c:	0b 2e       	mov	r0, r27
    333e:	ba 2f       	mov	r27, r26
    3340:	a0 2d       	mov	r26, r0
    3342:	0b 01       	movw	r0, r22
    3344:	b9 01       	movw	r22, r18
    3346:	90 01       	movw	r18, r0
    3348:	0c 01       	movw	r0, r24
    334a:	ca 01       	movw	r24, r20
    334c:	a0 01       	movw	r20, r0
    334e:	11 24       	eor	r1, r1
    3350:	ff 27       	eor	r31, r31
    3352:	59 1b       	sub	r21, r25
    3354:	99 f0       	breq	.+38     	; 0x337c <.LLST16+0xa>
    3356:	59 3f       	cpi	r21, 0xF9	; 249
    3358:	50 f4       	brcc	.+20     	; 0x336e <.LVUS16+0x2>
    335a:	50 3e       	cpi	r21, 0xE0	; 224
    335c:	68 f1       	brcs	.+90     	; 0x33b8 <.LLST13+0x12>
    335e:	1a 16       	cp	r1, r26
    3360:	f0 40       	sbci	r31, 0x00	; 0
    3362:	a2 2f       	mov	r26, r18
    3364:	23 2f       	mov	r18, r19
    3366:	34 2f       	mov	r19, r20
    3368:	44 27       	eor	r20, r20
    336a:	58 5f       	subi	r21, 0xF8	; 248
    336c:	f3 cf       	rjmp	.-26     	; 0x3354 <__addsf3x+0x38>
    336e:	46 95       	lsr	r20
    3370:	37 95       	ror	r19
    3372:	27 95       	ror	r18
    3374:	a7 95       	ror	r26
    3376:	f0 40       	sbci	r31, 0x00	; 0
    3378:	53 95       	inc	r21
    337a:	c9 f7       	brne	.-14     	; 0x336e <.LVUS16+0x2>
    337c:	7e f4       	brtc	.+30     	; 0x339c <.LLST16+0x2a>
    337e:	1f 16       	cp	r1, r31
    3380:	ba 0b       	sbc	r27, r26
    3382:	62 0b       	sbc	r22, r18
    3384:	73 0b       	sbc	r23, r19
    3386:	84 0b       	sbc	r24, r20
    3388:	ba f0       	brmi	.+46     	; 0x33b8 <.LLST13+0x12>
    338a:	91 50       	subi	r25, 0x01	; 1
    338c:	a1 f0       	breq	.+40     	; 0x33b6 <.LLST13+0x10>
    338e:	ff 0f       	add	r31, r31
    3390:	bb 1f       	adc	r27, r27
    3392:	66 1f       	adc	r22, r22
    3394:	77 1f       	adc	r23, r23
    3396:	88 1f       	adc	r24, r24
    3398:	c2 f7       	brpl	.-16     	; 0x338a <.LLST16+0x18>
    339a:	0e c0       	rjmp	.+28     	; 0x33b8 <.LLST13+0x12>
    339c:	ba 0f       	add	r27, r26
    339e:	62 1f       	adc	r22, r18
    33a0:	73 1f       	adc	r23, r19
    33a2:	84 1f       	adc	r24, r20
    33a4:	48 f4       	brcc	.+18     	; 0x33b8 <.LLST13+0x12>
    33a6:	87 95       	ror	r24
    33a8:	77 95       	ror	r23
    33aa:	67 95       	ror	r22
    33ac:	b7 95       	ror	r27
    33ae:	f7 95       	ror	r31
    33b0:	9e 3f       	cpi	r25, 0xFE	; 254
    33b2:	08 f0       	brcs	.+2      	; 0x33b6 <.LLST13+0x10>
    33b4:	b0 cf       	rjmp	.-160    	; 0x3316 <.LLST15+0xc>
    33b6:	93 95       	inc	r25
    33b8:	88 0f       	add	r24, r24
    33ba:	08 f0       	brcs	.+2      	; 0x33be <.LLST13+0x18>
    33bc:	99 27       	eor	r25, r25
    33be:	ee 0f       	add	r30, r30
    33c0:	97 95       	ror	r25
    33c2:	87 95       	ror	r24
    33c4:	08 95       	ret

000033c6 <__divsf3>:
    33c6:	0e 94 f7 19 	call	0x33ee	; 0x33ee <__divsf3x>
    33ca:	0c 94 df 1a 	jmp	0x35be	; 0x35be <__fp_round>
    33ce:	0e 94 d8 1a 	call	0x35b0	; 0x35b0 <__fp_pscB>
    33d2:	58 f0       	brcs	.+22     	; 0x33ea <.LLST14+0x4>
    33d4:	0e 94 d1 1a 	call	0x35a2	; 0x35a2 <__fp_pscA>
    33d8:	40 f0       	brcs	.+16     	; 0x33ea <.LLST14+0x4>
    33da:	29 f4       	brne	.+10     	; 0x33e6 <.LLST14>
    33dc:	5f 3f       	cpi	r21, 0xFF	; 255
    33de:	29 f0       	breq	.+10     	; 0x33ea <.LLST14+0x4>
    33e0:	0c 94 c8 1a 	jmp	0x3590	; 0x3590 <__fp_inf>
    33e4:	51 11       	cpse	r21, r1
    33e6:	0c 94 13 1b 	jmp	0x3626	; 0x3626 <__fp_szero>
    33ea:	0c 94 ce 1a 	jmp	0x359c	; 0x359c <__fp_nan>

000033ee <__divsf3x>:
    33ee:	0e 94 f0 1a 	call	0x35e0	; 0x35e0 <__fp_split3>
    33f2:	68 f3       	brcs	.-38     	; 0x33ce <__divsf3+0x8>

000033f4 <__divsf3_pse>:
    33f4:	99 23       	and	r25, r25
    33f6:	b1 f3       	breq	.-20     	; 0x33e4 <.LVUS14+0x4>
    33f8:	55 23       	and	r21, r21
    33fa:	91 f3       	breq	.-28     	; 0x33e0 <.LVUS14>
    33fc:	95 1b       	sub	r25, r21
    33fe:	55 0b       	sbc	r21, r21
    3400:	bb 27       	eor	r27, r27
    3402:	aa 27       	eor	r26, r26
    3404:	62 17       	cp	r22, r18
    3406:	73 07       	cpc	r23, r19
    3408:	84 07       	cpc	r24, r20
    340a:	38 f0       	brcs	.+14     	; 0x341a <.LLST12>
    340c:	9f 5f       	subi	r25, 0xFF	; 255
    340e:	5f 4f       	sbci	r21, 0xFF	; 255
    3410:	22 0f       	add	r18, r18
    3412:	33 1f       	adc	r19, r19
    3414:	44 1f       	adc	r20, r20
    3416:	aa 1f       	adc	r26, r26
    3418:	a9 f3       	breq	.-22     	; 0x3404 <__divsf3_pse+0x10>
    341a:	35 d0       	rcall	.+106    	; 0x3486 <.LLST11+0x20>
    341c:	0e 2e       	mov	r0, r30
    341e:	3a f0       	brmi	.+14     	; 0x342e <.LLST12+0x14>
    3420:	e0 e8       	ldi	r30, 0x80	; 128
    3422:	32 d0       	rcall	.+100    	; 0x3488 <.LLST11+0x22>
    3424:	91 50       	subi	r25, 0x01	; 1
    3426:	50 40       	sbci	r21, 0x00	; 0
    3428:	e6 95       	lsr	r30
    342a:	00 1c       	adc	r0, r0
    342c:	ca f7       	brpl	.-14     	; 0x3420 <.LLST12+0x6>
    342e:	2b d0       	rcall	.+86     	; 0x3486 <.LLST11+0x20>
    3430:	fe 2f       	mov	r31, r30
    3432:	29 d0       	rcall	.+82     	; 0x3486 <.LLST11+0x20>
    3434:	66 0f       	add	r22, r22
    3436:	77 1f       	adc	r23, r23
    3438:	88 1f       	adc	r24, r24
    343a:	bb 1f       	adc	r27, r27
    343c:	26 17       	cp	r18, r22
    343e:	37 07       	cpc	r19, r23
    3440:	48 07       	cpc	r20, r24
    3442:	ab 07       	cpc	r26, r27
    3444:	b0 e8       	ldi	r27, 0x80	; 128
    3446:	09 f0       	breq	.+2      	; 0x344a <.LLST12+0x30>
    3448:	bb 0b       	sbc	r27, r27
    344a:	80 2d       	mov	r24, r0
    344c:	bf 01       	movw	r22, r30
    344e:	ff 27       	eor	r31, r31
    3450:	93 58       	subi	r25, 0x83	; 131
    3452:	5f 4f       	sbci	r21, 0xFF	; 255
    3454:	3a f0       	brmi	.+14     	; 0x3464 <.LVUS11+0x6>
    3456:	9e 3f       	cpi	r25, 0xFE	; 254
    3458:	51 05       	cpc	r21, r1
    345a:	78 f0       	brcs	.+30     	; 0x347a <.LLST11+0x14>
    345c:	0c 94 c8 1a 	jmp	0x3590	; 0x3590 <__fp_inf>
    3460:	0c 94 13 1b 	jmp	0x3626	; 0x3626 <__fp_szero>
    3464:	5f 3f       	cpi	r21, 0xFF	; 255
    3466:	e4 f3       	brlt	.-8      	; 0x3460 <.LVUS11+0x2>
    3468:	98 3e       	cpi	r25, 0xE8	; 232
    346a:	d4 f3       	brlt	.-12     	; 0x3460 <.LVUS11+0x2>
    346c:	86 95       	lsr	r24
    346e:	77 95       	ror	r23
    3470:	67 95       	ror	r22
    3472:	b7 95       	ror	r27
    3474:	f7 95       	ror	r31
    3476:	9f 5f       	subi	r25, 0xFF	; 255
    3478:	c9 f7       	brne	.-14     	; 0x346c <.LLST11+0x6>
    347a:	88 0f       	add	r24, r24
    347c:	91 1d       	adc	r25, r1
    347e:	96 95       	lsr	r25
    3480:	87 95       	ror	r24
    3482:	97 f9       	bld	r25, 7
    3484:	08 95       	ret
    3486:	e1 e0       	ldi	r30, 0x01	; 1
    3488:	66 0f       	add	r22, r22
    348a:	77 1f       	adc	r23, r23
    348c:	88 1f       	adc	r24, r24
    348e:	bb 1f       	adc	r27, r27
    3490:	62 17       	cp	r22, r18
    3492:	73 07       	cpc	r23, r19
    3494:	84 07       	cpc	r24, r20
    3496:	ba 07       	cpc	r27, r26
    3498:	20 f0       	brcs	.+8      	; 0x34a2 <.LLST11+0x3c>
    349a:	62 1b       	sub	r22, r18
    349c:	73 0b       	sbc	r23, r19
    349e:	84 0b       	sbc	r24, r20
    34a0:	ba 0b       	sbc	r27, r26
    34a2:	ee 1f       	adc	r30, r30
    34a4:	88 f7       	brcc	.-30     	; 0x3488 <.LLST11+0x22>
    34a6:	e0 95       	com	r30
    34a8:	08 95       	ret

000034aa <__fixsfsi>:
    34aa:	0e 94 5c 1a 	call	0x34b8	; 0x34b8 <__fixunssfsi>
    34ae:	68 94       	set
    34b0:	b1 11       	cpse	r27, r1
    34b2:	0c 94 13 1b 	jmp	0x3626	; 0x3626 <__fp_szero>
    34b6:	08 95       	ret

000034b8 <__fixunssfsi>:
    34b8:	0e 94 f8 1a 	call	0x35f0	; 0x35f0 <__fp_splitA>
    34bc:	88 f0       	brcs	.+34     	; 0x34e0 <__fixunssfsi+0x28>
    34be:	9f 57       	subi	r25, 0x7F	; 127
    34c0:	98 f0       	brcs	.+38     	; 0x34e8 <__fixunssfsi+0x30>
    34c2:	b9 2f       	mov	r27, r25
    34c4:	99 27       	eor	r25, r25
    34c6:	b7 51       	subi	r27, 0x17	; 23
    34c8:	b0 f0       	brcs	.+44     	; 0x34f6 <.Ldebug_line0+0x7>
    34ca:	e1 f0       	breq	.+56     	; 0x3504 <.Ldebug_line0+0x15>
    34cc:	66 0f       	add	r22, r22
    34ce:	77 1f       	adc	r23, r23
    34d0:	88 1f       	adc	r24, r24
    34d2:	99 1f       	adc	r25, r25
    34d4:	1a f0       	brmi	.+6      	; 0x34dc <__fixunssfsi+0x24>
    34d6:	ba 95       	dec	r27
    34d8:	c9 f7       	brne	.-14     	; 0x34cc <__fixunssfsi+0x14>
    34da:	14 c0       	rjmp	.+40     	; 0x3504 <.Ldebug_line0+0x15>
    34dc:	b1 30       	cpi	r27, 0x01	; 1
    34de:	91 f0       	breq	.+36     	; 0x3504 <.Ldebug_line0+0x15>
    34e0:	0e 94 12 1b 	call	0x3624	; 0x3624 <__fp_zero>
    34e4:	b1 e0       	ldi	r27, 0x01	; 1
    34e6:	08 95       	ret
    34e8:	0c 94 12 1b 	jmp	0x3624	; 0x3624 <__fp_zero>
    34ec:	67 2f       	mov	r22, r23
    34ee:	78 2f       	mov	r23, r24
    34f0:	88 27       	eor	r24, r24
    34f2:	b8 5f       	subi	r27, 0xF8	; 248
    34f4:	39 f0       	breq	.+14     	; 0x3504 <.Ldebug_line0+0x15>
    34f6:	b9 3f       	cpi	r27, 0xF9	; 249
    34f8:	cc f3       	brlt	.-14     	; 0x34ec <__fixunssfsi+0x34>
    34fa:	86 95       	lsr	r24
    34fc:	77 95       	ror	r23
    34fe:	67 95       	ror	r22
    3500:	b3 95       	inc	r27
    3502:	d9 f7       	brne	.-10     	; 0x34fa <.Ldebug_line0+0xb>
    3504:	3e f4       	brtc	.+14     	; 0x3514 <.Ldebug_line0+0x25>
    3506:	90 95       	com	r25
    3508:	80 95       	com	r24
    350a:	70 95       	com	r23
    350c:	61 95       	neg	r22
    350e:	7f 4f       	sbci	r23, 0xFF	; 255
    3510:	8f 4f       	sbci	r24, 0xFF	; 255
    3512:	9f 4f       	sbci	r25, 0xFF	; 255
    3514:	08 95       	ret

00003516 <__floatunsisf>:
    3516:	e8 94       	clt
    3518:	09 c0       	rjmp	.+18     	; 0x352c <.LLST10+0xc>

0000351a <__floatsisf>:
    351a:	97 fb       	bst	r25, 7
    351c:	3e f4       	brtc	.+14     	; 0x352c <.LLST10+0xc>
    351e:	90 95       	com	r25
    3520:	80 95       	com	r24
    3522:	70 95       	com	r23
    3524:	61 95       	neg	r22
    3526:	7f 4f       	sbci	r23, 0xFF	; 255
    3528:	8f 4f       	sbci	r24, 0xFF	; 255
    352a:	9f 4f       	sbci	r25, 0xFF	; 255
    352c:	99 23       	and	r25, r25
    352e:	a9 f0       	breq	.+42     	; 0x355a <.LVUS8>
    3530:	f9 2f       	mov	r31, r25
    3532:	96 e9       	ldi	r25, 0x96	; 150
    3534:	bb 27       	eor	r27, r27
    3536:	93 95       	inc	r25
    3538:	f6 95       	lsr	r31
    353a:	87 95       	ror	r24
    353c:	77 95       	ror	r23
    353e:	67 95       	ror	r22
    3540:	b7 95       	ror	r27
    3542:	f1 11       	cpse	r31, r1
    3544:	f8 cf       	rjmp	.-16     	; 0x3536 <.LLST10+0x16>
    3546:	fa f4       	brpl	.+62     	; 0x3586 <.LLST8+0x22>
    3548:	bb 0f       	add	r27, r27
    354a:	11 f4       	brne	.+4      	; 0x3550 <.LLST10+0x30>
    354c:	60 ff       	sbrs	r22, 0
    354e:	1b c0       	rjmp	.+54     	; 0x3586 <.LLST8+0x22>
    3550:	6f 5f       	subi	r22, 0xFF	; 255
    3552:	7f 4f       	sbci	r23, 0xFF	; 255
    3554:	8f 4f       	sbci	r24, 0xFF	; 255
    3556:	9f 4f       	sbci	r25, 0xFF	; 255
    3558:	16 c0       	rjmp	.+44     	; 0x3586 <.LLST8+0x22>
    355a:	88 23       	and	r24, r24
    355c:	11 f0       	breq	.+4      	; 0x3562 <.LVUS8+0x8>
    355e:	96 e9       	ldi	r25, 0x96	; 150
    3560:	11 c0       	rjmp	.+34     	; 0x3584 <.LLST8+0x20>
    3562:	77 23       	and	r23, r23
    3564:	21 f0       	breq	.+8      	; 0x356e <.LLST8+0xa>
    3566:	9e e8       	ldi	r25, 0x8E	; 142
    3568:	87 2f       	mov	r24, r23
    356a:	76 2f       	mov	r23, r22
    356c:	05 c0       	rjmp	.+10     	; 0x3578 <.LLST8+0x14>
    356e:	66 23       	and	r22, r22
    3570:	71 f0       	breq	.+28     	; 0x358e <.LLST8+0x2a>
    3572:	96 e8       	ldi	r25, 0x86	; 134
    3574:	86 2f       	mov	r24, r22
    3576:	70 e0       	ldi	r23, 0x00	; 0
    3578:	60 e0       	ldi	r22, 0x00	; 0
    357a:	2a f0       	brmi	.+10     	; 0x3586 <.LLST8+0x22>
    357c:	9a 95       	dec	r25
    357e:	66 0f       	add	r22, r22
    3580:	77 1f       	adc	r23, r23
    3582:	88 1f       	adc	r24, r24
    3584:	da f7       	brpl	.-10     	; 0x357c <.LLST8+0x18>
    3586:	88 0f       	add	r24, r24
    3588:	96 95       	lsr	r25
    358a:	87 95       	ror	r24
    358c:	97 f9       	bld	r25, 7
    358e:	08 95       	ret

00003590 <__fp_inf>:
    3590:	97 f9       	bld	r25, 7
    3592:	9f 67       	ori	r25, 0x7F	; 127
    3594:	80 e8       	ldi	r24, 0x80	; 128
    3596:	70 e0       	ldi	r23, 0x00	; 0
    3598:	60 e0       	ldi	r22, 0x00	; 0
    359a:	08 95       	ret

0000359c <__fp_nan>:
    359c:	9f ef       	ldi	r25, 0xFF	; 255
    359e:	80 ec       	ldi	r24, 0xC0	; 192
    35a0:	08 95       	ret

000035a2 <__fp_pscA>:
    35a2:	00 24       	eor	r0, r0
    35a4:	0a 94       	dec	r0
    35a6:	16 16       	cp	r1, r22
    35a8:	17 06       	cpc	r1, r23
    35aa:	18 06       	cpc	r1, r24
    35ac:	09 06       	cpc	r0, r25
    35ae:	08 95       	ret

000035b0 <__fp_pscB>:
    35b0:	00 24       	eor	r0, r0
    35b2:	0a 94       	dec	r0
    35b4:	12 16       	cp	r1, r18
    35b6:	13 06       	cpc	r1, r19
    35b8:	14 06       	cpc	r1, r20
    35ba:	05 06       	cpc	r0, r21
    35bc:	08 95       	ret

000035be <__fp_round>:
    35be:	09 2e       	mov	r0, r25
    35c0:	03 94       	inc	r0
    35c2:	00 0c       	add	r0, r0
    35c4:	11 f4       	brne	.+4      	; 0x35ca <__fp_round+0xc>
    35c6:	88 23       	and	r24, r24
    35c8:	52 f0       	brmi	.+20     	; 0x35de <__fp_round+0x20>
    35ca:	bb 0f       	add	r27, r27
    35cc:	40 f4       	brcc	.+16     	; 0x35de <__fp_round+0x20>
    35ce:	bf 2b       	or	r27, r31
    35d0:	11 f4       	brne	.+4      	; 0x35d6 <__fp_round+0x18>
    35d2:	60 ff       	sbrs	r22, 0
    35d4:	04 c0       	rjmp	.+8      	; 0x35de <__fp_round+0x20>
    35d6:	6f 5f       	subi	r22, 0xFF	; 255
    35d8:	7f 4f       	sbci	r23, 0xFF	; 255
    35da:	8f 4f       	sbci	r24, 0xFF	; 255
    35dc:	9f 4f       	sbci	r25, 0xFF	; 255
    35de:	08 95       	ret

000035e0 <__fp_split3>:
    35e0:	57 fd       	sbrc	r21, 7
    35e2:	90 58       	subi	r25, 0x80	; 128
    35e4:	44 0f       	add	r20, r20
    35e6:	55 1f       	adc	r21, r21
    35e8:	59 f0       	breq	.+22     	; 0x3600 <__fp_splitA+0x10>
    35ea:	5f 3f       	cpi	r21, 0xFF	; 255
    35ec:	71 f0       	breq	.+28     	; 0x360a <__fp_splitA+0x1a>
    35ee:	47 95       	ror	r20

000035f0 <__fp_splitA>:
    35f0:	88 0f       	add	r24, r24
    35f2:	97 fb       	bst	r25, 7
    35f4:	99 1f       	adc	r25, r25
    35f6:	61 f0       	breq	.+24     	; 0x3610 <__fp_splitA+0x20>
    35f8:	9f 3f       	cpi	r25, 0xFF	; 255
    35fa:	79 f0       	breq	.+30     	; 0x361a <__fp_splitA+0x2a>
    35fc:	87 95       	ror	r24
    35fe:	08 95       	ret
    3600:	12 16       	cp	r1, r18
    3602:	13 06       	cpc	r1, r19
    3604:	14 06       	cpc	r1, r20
    3606:	55 1f       	adc	r21, r21
    3608:	f2 cf       	rjmp	.-28     	; 0x35ee <__fp_split3+0xe>
    360a:	46 95       	lsr	r20
    360c:	f1 df       	rcall	.-30     	; 0x35f0 <__fp_splitA>
    360e:	08 c0       	rjmp	.+16     	; 0x3620 <__fp_splitA+0x30>
    3610:	16 16       	cp	r1, r22
    3612:	17 06       	cpc	r1, r23
    3614:	18 06       	cpc	r1, r24
    3616:	99 1f       	adc	r25, r25
    3618:	f1 cf       	rjmp	.-30     	; 0x35fc <__fp_splitA+0xc>
    361a:	86 95       	lsr	r24
    361c:	71 05       	cpc	r23, r1
    361e:	61 05       	cpc	r22, r1
    3620:	08 94       	sec
    3622:	08 95       	ret

00003624 <__fp_zero>:
    3624:	e8 94       	clt

00003626 <__fp_szero>:
    3626:	bb 27       	eor	r27, r27
    3628:	66 27       	eor	r22, r22
    362a:	77 27       	eor	r23, r23
    362c:	cb 01       	movw	r24, r22
    362e:	97 f9       	bld	r25, 7
    3630:	08 95       	ret

00003632 <__mulsf3>:
    3632:	0e 94 2c 1b 	call	0x3658	; 0x3658 <__mulsf3x>
    3636:	0c 94 df 1a 	jmp	0x35be	; 0x35be <__fp_round>
    363a:	0e 94 d1 1a 	call	0x35a2	; 0x35a2 <__fp_pscA>
    363e:	38 f0       	brcs	.+14     	; 0x364e <__mulsf3+0x1c>
    3640:	0e 94 d8 1a 	call	0x35b0	; 0x35b0 <__fp_pscB>
    3644:	20 f0       	brcs	.+8      	; 0x364e <__mulsf3+0x1c>
    3646:	95 23       	and	r25, r21
    3648:	11 f0       	breq	.+4      	; 0x364e <__mulsf3+0x1c>
    364a:	0c 94 c8 1a 	jmp	0x3590	; 0x3590 <__fp_inf>
    364e:	0c 94 ce 1a 	jmp	0x359c	; 0x359c <__fp_nan>
    3652:	11 24       	eor	r1, r1
    3654:	0c 94 13 1b 	jmp	0x3626	; 0x3626 <__fp_szero>

00003658 <__mulsf3x>:
    3658:	0e 94 f0 1a 	call	0x35e0	; 0x35e0 <__fp_split3>
    365c:	70 f3       	brcs	.-36     	; 0x363a <__mulsf3+0x8>

0000365e <__mulsf3_pse>:
    365e:	95 9f       	mul	r25, r21
    3660:	c1 f3       	breq	.-16     	; 0x3652 <.LVUS5+0x2>
    3662:	95 0f       	add	r25, r21
    3664:	50 e0       	ldi	r21, 0x00	; 0
    3666:	55 1f       	adc	r21, r21
    3668:	62 9f       	mul	r22, r18
    366a:	f0 01       	movw	r30, r0
    366c:	72 9f       	mul	r23, r18
    366e:	bb 27       	eor	r27, r27
    3670:	f0 0d       	add	r31, r0
    3672:	b1 1d       	adc	r27, r1
    3674:	63 9f       	mul	r22, r19
    3676:	aa 27       	eor	r26, r26
    3678:	f0 0d       	add	r31, r0
    367a:	b1 1d       	adc	r27, r1
    367c:	aa 1f       	adc	r26, r26
    367e:	64 9f       	mul	r22, r20
    3680:	66 27       	eor	r22, r22
    3682:	b0 0d       	add	r27, r0
    3684:	a1 1d       	adc	r26, r1
    3686:	66 1f       	adc	r22, r22
    3688:	82 9f       	mul	r24, r18
    368a:	22 27       	eor	r18, r18
    368c:	b0 0d       	add	r27, r0
    368e:	a1 1d       	adc	r26, r1
    3690:	62 1f       	adc	r22, r18
    3692:	73 9f       	mul	r23, r19
    3694:	b0 0d       	add	r27, r0
    3696:	a1 1d       	adc	r26, r1
    3698:	62 1f       	adc	r22, r18
    369a:	83 9f       	mul	r24, r19
    369c:	a0 0d       	add	r26, r0
    369e:	61 1d       	adc	r22, r1
    36a0:	22 1f       	adc	r18, r18
    36a2:	74 9f       	mul	r23, r20
    36a4:	33 27       	eor	r19, r19
    36a6:	a0 0d       	add	r26, r0
    36a8:	61 1d       	adc	r22, r1
    36aa:	23 1f       	adc	r18, r19
    36ac:	84 9f       	mul	r24, r20
    36ae:	60 0d       	add	r22, r0
    36b0:	21 1d       	adc	r18, r1
    36b2:	82 2f       	mov	r24, r18
    36b4:	76 2f       	mov	r23, r22
    36b6:	6a 2f       	mov	r22, r26
    36b8:	11 24       	eor	r1, r1
    36ba:	9f 57       	subi	r25, 0x7F	; 127
    36bc:	50 40       	sbci	r21, 0x00	; 0
    36be:	9a f0       	brmi	.+38     	; 0x36e6 <.Ldebug_info0+0x2d>
    36c0:	f1 f0       	breq	.+60     	; 0x36fe <.LVUS3+0x3>
    36c2:	88 23       	and	r24, r24
    36c4:	4a f0       	brmi	.+18     	; 0x36d8 <.Ldebug_info0+0x1f>
    36c6:	ee 0f       	add	r30, r30
    36c8:	ff 1f       	adc	r31, r31
    36ca:	bb 1f       	adc	r27, r27
    36cc:	66 1f       	adc	r22, r22
    36ce:	77 1f       	adc	r23, r23
    36d0:	88 1f       	adc	r24, r24
    36d2:	91 50       	subi	r25, 0x01	; 1
    36d4:	50 40       	sbci	r21, 0x00	; 0
    36d6:	a9 f7       	brne	.-22     	; 0x36c2 <.Ldebug_info0+0x9>
    36d8:	9e 3f       	cpi	r25, 0xFE	; 254
    36da:	51 05       	cpc	r21, r1
    36dc:	80 f0       	brcs	.+32     	; 0x36fe <.LVUS3+0x3>
    36de:	0c 94 c8 1a 	jmp	0x3590	; 0x3590 <__fp_inf>
    36e2:	0c 94 13 1b 	jmp	0x3626	; 0x3626 <__fp_szero>
    36e6:	5f 3f       	cpi	r21, 0xFF	; 255
    36e8:	e4 f3       	brlt	.-8      	; 0x36e2 <.Ldebug_info0+0x29>
    36ea:	98 3e       	cpi	r25, 0xE8	; 232
    36ec:	d4 f3       	brlt	.-12     	; 0x36e2 <.Ldebug_info0+0x29>
    36ee:	86 95       	lsr	r24
    36f0:	77 95       	ror	r23
    36f2:	67 95       	ror	r22
    36f4:	b7 95       	ror	r27
    36f6:	f7 95       	ror	r31
    36f8:	e7 95       	ror	r30
    36fa:	9f 5f       	subi	r25, 0xFF	; 255
    36fc:	c1 f7       	brne	.-16     	; 0x36ee <.Ldebug_info0+0x35>
    36fe:	fe 2b       	or	r31, r30
    3700:	88 0f       	add	r24, r24
    3702:	91 1d       	adc	r25, r1
    3704:	96 95       	lsr	r25
    3706:	87 95       	ror	r24
    3708:	97 f9       	bld	r25, 7
    370a:	08 95       	ret

0000370c <_exit>:
    370c:	f8 94       	cli

0000370e <__stop_program>:
    370e:	ff cf       	rjmp	.-2      	; 0x370e <__stop_program>
